

HI-TECH Software PIC LITE Macro Assembler V9.82 build 9453 
                                                                                               Sat May 19 17:35:13 2012

HI-TECH Software Omniscient Code Generator (Lite mode) build 9453
     1  0000                     opt subtitle "HI-TECH Software Omniscient Code Generator (Lite mode) build 9453"
     2                           
     3                           opt pagewidth 120
     4                           
     5                           	opt lm
     6                           
     7                           	processor	16LF1516
     8                           clrc	macro
     9                           	bcf	3,0
    10  0000                     	endm
    11                           clrz	macro
    12                           	bcf	3,2
    13  0000                     	endm
    14                           setc	macro
    15                           	bsf	3,0
    16  0000                     	endm
    17                           setz	macro
    18                           	bsf	3,2
    19  0000                     	endm
    20                           skipc	macro
    21                           	btfss	3,0
    22  0000                     	endm
    23                           skipz	macro
    24                           	btfss	3,2
    25  0000                     	endm
    26                           skipnc	macro
    27                           	btfsc	3,0
    28  0000                     	endm
    29                           skipnz	macro
    30                           	btfsc	3,2
    31  0000                     	endm
    32  0000                     indf	equ	0
    33  0000                     indf0	equ	0
    34  0001                     indf1	equ	1
    35  0002                     pc	equ	2
    36  0002                     pcl	equ	2
    37  0003                     status	equ	3
    38  0004                     fsr0l	equ	4
    39  0005                     fsr0h	equ	5
    40  0006                     fsr1l	equ	6
    41  0007                     fsr1h	equ	7
    42  0008                     bsr	equ	8
    43  0009                     wreg	equ	9
    44  000B                     intcon	equ	11
    45  0001                     c	equ	1
    46  0000                     z	equ	0
    47  000A                     pclath	equ	10
    48                           # 17 "newmain.c"
    49                           	psect config,class=CONFIG,delta=2 ;#
    50                           # 17 "newmain.c"
    51  8007  F7E4               	dw 0xFFFC & 0xFFE7 & 0xF7FF ;#
    52                           	FNCALL	_main,_doDelay
    53                           	FNCALL	_main,_ADCInit
    54                           	FNCALL	_main,_readchannel
    55                           	FNCALL	_main,_searchTrack
    56                           	FNCALL	_main,_controlMotor
    57                           	FNCALL	_doDelay,__delay_ms
    58                           	FNCALL	_searchTrack,_controlMotor
    59                           	FNROOT	_main
    60                           	global	_count
    61                           	global	_start
    62                           	global	_stop
    63                           	global	_clock_t
    64                           	global	_ticks
    65                           	global	_lastMotor
    66                           	global	_PORTA
    67                           psect	text173,local,class=CODE,delta=2
    68                           global __ptext173
    69  0000                     __ptext173:
    70  000C                     _PORTA	set	12
    71                           	global	_PORTB
    72  000D                     _PORTB	set	13
    73                           	global	_PORTC
    74  000E                     _PORTC	set	14
    75                           	global	_RC2
    76  0072                     _RC2	set	114
    77                           	global	_RC3
    78  0073                     _RC3	set	115
    79                           	global	_RC6
    80  0076                     _RC6	set	118
    81                           	global	_ADCON0
    82  009D                     _ADCON0	set	157
    83                           	global	_ADCON1
    84  009E                     _ADCON1	set	158
    85                           	global	_ADRESH
    86  009C                     _ADRESH	set	156
    87                           	global	_TRISA
    88  008C                     _TRISA	set	140
    89                           	global	_TRISB
    90  008D                     _TRISB	set	141
    91                           	global	_TRISC
    92  008E                     _TRISC	set	142
    93                           	global	_ADON
    94  04E8                     _ADON	set	1256
    95                           	global	_GO_nDONE
    96  04E9                     _GO_nDONE	set	1257
    97                           	global	_ANSELC
    98  018E                     _ANSELC	set	398
    99                           	file	"/tmp/cgtHlBxe9"
   100                           	line	#
   101                           psect cinit,class=CODE,delta=2
   102                           global start_initialization
   103  04D6                     start_initialization:
   104                           
   105                           psect	bssCOMMON,class=COMMON,space=1
   106                           global __pbssCOMMON
   107  007C                     __pbssCOMMON:
   108  007C                     _lastMotor:
   109  007C                            ds      2
   110                           
   111                           psect	bssBANK0,class=BANK0,space=1
   112                           global __pbssBANK0
   113  0020                     __pbssBANK0:
   114  0020                     _count:
   115  0020                            ds      4
   116                           
   117  0024                     _start:
   118  0024                            ds      4
   119                           
   120  0028                     _stop:
   121  0028                            ds      4
   122                           
   123  002C                     _clock_t:
   124  002C                            ds      2
   125                           
   126  002E                     _ticks:
   127  002E                            ds      2
   128                           
   129                           psect clrtext,class=CODE,delta=2
   130                           global clear_ram
   131                           ;	Called with FSR0 containing the base address, and
   132                           ;	WREG with the size to clear
   133  04D0                     clear_ram:
   134  04D0  0064               	clrwdt			;clear the watchdog before getting into this loop
   135  04D1                     clrloop:
   136  04D1  0180               	clrf	indf0		;clear RAM location pointed to by FSR
   137  04D2  3101               	addfsr	0,1
   138  04D3  0B89               	decfsz wreg		;Have we reached the end of clearing yet?
   139  04D4  2CD1               	goto clrloop	;have we reached the end yet?
   140  04D5  3400               	retlw	0		;all done for this memory range, return
   141                           ; Clear objects allocated to COMMON
   142                           psect cinit,class=CODE,delta=2
   143                           	global __pbssCOMMON
   144  04D6  01FC               	clrf	((__pbssCOMMON)+0)&07Fh
   145  04D7  01FD               	clrf	((__pbssCOMMON)+1)&07Fh
   146                           ; Clear objects allocated to BANK0
   147                           psect cinit,class=CODE,delta=2
   148                           	global __pbssBANK0
   149  04D8  3020               	movlw	low(__pbssBANK0)
   150  04D9  0084               	movwf	fsr0l
   151  04DA  3000               	movlw	high(__pbssBANK0)
   152  04DB  0085               	movwf	fsr0h
   153  04DC  3010               	movlw	010h
   154  04DD  3184  24D0  3184   	fcall	clear_ram
   155                           psect cinit,class=CODE,delta=2
   156                           global end_of_initialization
   157                           
   158                           ;End of C runtime variable initialization code
   159                           
   160  04E0                     end_of_initialization:
   161  04E0  0020               movlb 0
   162  04E1  3185  2DA4         ljmp _main	;jump to C main() function
   163                           psect	cstackCOMMON,class=COMMON,space=1
   164                           global __pcstackCOMMON
   165  0070                     __pcstackCOMMON:
   166                           	global	?__delay_ms
   167  0070                     ?__delay_ms:	; 0 bytes @ 0x0
   168                           	global	?_controlMotor
   169  0070                     ?_controlMotor:	; 0 bytes @ 0x0
   170                           	global	?_doDelay
   171  0070                     ?_doDelay:	; 0 bytes @ 0x0
   172                           	global	?_ADCInit
   173  0070                     ?_ADCInit:	; 0 bytes @ 0x0
   174                           	global	??_ADCInit
   175  0070                     ??_ADCInit:	; 0 bytes @ 0x0
   176                           	global	?_searchTrack
   177  0070                     ?_searchTrack:	; 2 bytes @ 0x0
   178                           	global	?_readchannel
   179  0070                     ?_readchannel:	; 2 bytes @ 0x0
   180                           	global	?_main
   181  0070                     ?_main:	; 2 bytes @ 0x0
   182                           	global	__delay_ms@ms
   183  0070                     __delay_ms@ms:	; 2 bytes @ 0x0
   184                           	global	controlMotor@rightmotor
   185  0070                     controlMotor@rightmotor:	; 2 bytes @ 0x0
   186                           	global	readchannel@chan
   187  0070                     readchannel@chan:	; 2 bytes @ 0x0
   188  0070                     	ds	2
   189                           	global	??__delay_ms
   190  0072                     ??__delay_ms:	; 0 bytes @ 0x2
   191                           	global	??_readchannel
   192  0072                     ??_readchannel:	; 0 bytes @ 0x2
   193                           	global	__delay_ms@i
   194  0072                     __delay_ms@i:	; 2 bytes @ 0x2
   195                           	global	controlMotor@leftmotor
   196  0072                     controlMotor@leftmotor:	; 2 bytes @ 0x2
   197  0072                     	ds	2
   198                           	global	??_controlMotor
   199  0074                     ??_controlMotor:	; 0 bytes @ 0x4
   200                           	global	??_searchTrack
   201  0074                     ??_searchTrack:	; 0 bytes @ 0x4
   202                           	global	??_doDelay
   203  0074                     ??_doDelay:	; 0 bytes @ 0x4
   204                           	global	??_main
   205  0074                     ??_main:	; 0 bytes @ 0x4
   206  0074                     	ds	2
   207                           	global	main@leftpt
   208  0076                     main@leftpt:	; 2 bytes @ 0x6
   209  0076                     	ds	2
   210                           	global	main@rightpt
   211  0078                     main@rightpt:	; 2 bytes @ 0x8
   212  0078                     	ds	2
   213                           	global	main@read
   214  007A                     main@read:	; 2 bytes @ 0xA
   215  007A                     	ds	2
   216                           psect	cstackBANK0,class=BANK0,space=1
   217                           global __pcstackBANK0
   218  0030                     __pcstackBANK0:
   219                           	global	doDelay@i
   220  0030                     doDelay@i:	; 2 bytes @ 0x0
   221  0030                     	ds	2
   222                           	global	doDelay@i_1627
   223  0032                     doDelay@i_1627:	; 2 bytes @ 0x2
   224  0032                     	ds	2
   225                           	global	doDelay@i_1628
   226  0034                     doDelay@i_1628:	; 2 bytes @ 0x4
   227  0034                     	ds	2
   228                           	global	doDelay@i_1629
   229  0036                     doDelay@i_1629:	; 2 bytes @ 0x6
   230  0036                     	ds	2
   231                           	global	doDelay@i_1630
   232  0038                     doDelay@i_1630:	; 2 bytes @ 0x8
   233  0038                     	ds	2
   234                           	global	doDelay@i_1631
   235  003A                     doDelay@i_1631:	; 2 bytes @ 0xA
   236  003A                     	ds	2
   237                           	global	doDelay@i_1632
   238  003C                     doDelay@i_1632:	; 2 bytes @ 0xC
   239  003C                     	ds	2
   240                           	global	doDelay@i_1633
   241  003E                     doDelay@i_1633:	; 2 bytes @ 0xE
   242  003E                     	ds	2
   243 ;;Data sizes: Strings 0, constant 0, data 0, bss 18, persistent 0 stack 0
   244 ;;Auto spaces:   Size  Autos    Used
   245 ;; COMMON          14     12      14
   246 ;; BANK0           80     16      32
   247 ;; BANK1           80      0       0
   248 ;; BANK2           80      0       0
   249 ;; BANK3           80      0       0
   250 ;; BANK4           80      0       0
   251 ;; BANK5           80      0       0
   252 ;; BANK6           16      0       0
   253                           
   254 ;;
   255 ;; Pointer list with targets:
   256                           
   257 ;; ?_readchannel	int  size(1) Largest target is 0
   258 ;;
   259                           
   260                           
   261 ;;
   262 ;; Critical Paths under _main in COMMON
   263 ;;
   264 ;;   _main->_readchannel
   265 ;;   _main->_controlMotor
   266 ;;   _doDelay->__delay_ms
   267 ;;   _searchTrack->_controlMotor
   268 ;;
   269 ;; Critical Paths under _main in BANK0
   270 ;;
   271 ;;   _main->_doDelay
   272 ;;
   273 ;; Critical Paths under _main in BANK1
   274 ;;
   275 ;;   None.
   276 ;;
   277 ;; Critical Paths under _main in BANK2
   278 ;;
   279 ;;   None.
   280 ;;
   281 ;; Critical Paths under _main in BANK3
   282 ;;
   283 ;;   None.
   284 ;;
   285 ;; Critical Paths under _main in BANK4
   286 ;;
   287 ;;   None.
   288 ;;
   289 ;; Critical Paths under _main in BANK5
   290 ;;
   291 ;;   None.
   292 ;;
   293 ;; Critical Paths under _main in BANK6
   294 ;;
   295 ;;   None.
   296                           
   297 ;;
   298 ;;Main: autosize = 0, tempsize = 2, incstack = 0, save=0
   299 ;;
   300                           
   301 ;;
   302 ;;Call Graph Tables:
   303 ;;
   304 ;; ---------------------------------------------------------------------------------
   305 ;; (Depth) Function   	        Calls       Base Space   Used Autos Params    Refs
   306 ;; ---------------------------------------------------------------------------------
   307 ;; (0) _main                                                 8     8      0     662
   308 ;;                                              4 COMMON     8     8      0
   309 ;;                            _doDelay
   310 ;;                            _ADCInit
   311 ;;                        _readchannel
   312 ;;                        _searchTrack
   313 ;;                       _controlMotor
   314 ;; ---------------------------------------------------------------------------------
   315 ;; (1) _doDelay                                             16    16      0     436
   316 ;;                                              0 BANK0     16    16      0
   317 ;;                          __delay_ms
   318 ;; ---------------------------------------------------------------------------------
   319 ;; (1) _searchTrack                                          0     0      0      30
   320 ;;                       _controlMotor
   321 ;; ---------------------------------------------------------------------------------
   322 ;; (2) __delay_ms                                            4     2      2      68
   323 ;;                                              0 COMMON     4     2      2
   324 ;; ---------------------------------------------------------------------------------
   325 ;; (1) _readchannel                                          4     2      2      30
   326 ;;                                              0 COMMON     4     2      2
   327 ;; ---------------------------------------------------------------------------------
   328 ;; (1) _ADCInit                                              0     0      0       0
   329 ;; ---------------------------------------------------------------------------------
   330 ;; (1) _controlMotor                                         4     0      4      30
   331 ;;                                              0 COMMON     4     0      4
   332 ;; ---------------------------------------------------------------------------------
   333 ;; Estimated maximum stack depth 2
   334 ;; ---------------------------------------------------------------------------------
   335                           
   336 ;; Call Graph Graphs:
   337                           
   338 ;; _main (ROOT)
   339 ;;   _doDelay
   340 ;;     __delay_ms
   341 ;;   _ADCInit
   342 ;;   _readchannel
   343 ;;   _searchTrack
   344 ;;     _controlMotor
   345 ;;   _controlMotor
   346 ;;
   347                           
   348 ;; Address spaces:
   349                           
   350 ;;Name               Size   Autos  Total    Cost      Usage
   351 ;;BIGRAM             1F0      0       0       0        0.0%
   352 ;;NULL                 0      0       0       0        0.0%
   353 ;;CODE                 0      0       0       0        0.0%
   354 ;;BITCOMMON            E      0       0       1        0.0%
   355 ;;BITSFR0              0      0       0       1        0.0%
   356 ;;SFR0                 0      0       0       1        0.0%
   357 ;;COMMON               E      C       E       2      100.0%
   358 ;;BITSFR1              0      0       0       2        0.0%
   359 ;;SFR1                 0      0       0       2        0.0%
   360 ;;BITSFR2              0      0       0       3        0.0%
   361 ;;SFR2                 0      0       0       3        0.0%
   362 ;;STACK                0      0       2       3        0.0%
   363 ;;BITSFR3              0      0       0       4        0.0%
   364 ;;SFR3                 0      0       0       4        0.0%
   365 ;;ABS                  0      0      2E       4        0.0%
   366 ;;BITBANK0            50      0       0       5        0.0%
   367 ;;BITSFR4              0      0       0       5        0.0%
   368 ;;SFR4                 0      0       0       5        0.0%
   369 ;;BANK0               50     10      20       6       40.0%
   370 ;;BITSFR5              0      0       0       6        0.0%
   371 ;;SFR5                 0      0       0       6        0.0%
   372 ;;BITBANK1            50      0       0       7        0.0%
   373 ;;BITSFR6              0      0       0       7        0.0%
   374 ;;SFR6                 0      0       0       7        0.0%
   375 ;;BANK1               50      0       0       8        0.0%
   376 ;;BITSFR7              0      0       0       8        0.0%
   377 ;;SFR7                 0      0       0       8        0.0%
   378 ;;BITBANK2            50      0       0       9        0.0%
   379 ;;BITSFR8              0      0       0       9        0.0%
   380 ;;SFR8                 0      0       0       9        0.0%
   381 ;;BANK2               50      0       0      10        0.0%
   382 ;;BITSFR9              0      0       0      10        0.0%
   383 ;;SFR9                 0      0       0      10        0.0%
   384 ;;BITBANK3            50      0       0      11        0.0%
   385 ;;BITSFR10             0      0       0      11        0.0%
   386 ;;SFR10                0      0       0      11        0.0%
   387 ;;BANK3               50      0       0      12        0.0%
   388 ;;BITSFR11             0      0       0      12        0.0%
   389 ;;SFR11                0      0       0      12        0.0%
   390 ;;BITBANK4            50      0       0      13        0.0%
   391 ;;BITSFR12             0      0       0      13        0.0%
   392 ;;SFR12                0      0       0      13        0.0%
   393 ;;BANK4               50      0       0      14        0.0%
   394 ;;BITSFR13             0      0       0      14        0.0%
   395 ;;SFR13                0      0       0      14        0.0%
   396 ;;BITBANK5            50      0       0      15        0.0%
   397 ;;BITSFR14             0      0       0      15        0.0%
   398 ;;SFR14                0      0       0      15        0.0%
   399 ;;BANK5               50      0       0      16        0.0%
   400 ;;BITSFR15             0      0       0      16        0.0%
   401 ;;SFR15                0      0       0      16        0.0%
   402 ;;BITBANK6            10      0       0      17        0.0%
   403 ;;BITSFR16             0      0       0      17        0.0%
   404 ;;SFR16                0      0       0      17        0.0%
   405 ;;BANK6               10      0       0      18        0.0%
   406 ;;BITSFR17             0      0       0      18        0.0%
   407 ;;SFR17                0      0       0      18        0.0%
   408 ;;BITSFR18             0      0       0      19        0.0%
   409 ;;SFR18                0      0       0      19        0.0%
   410 ;;DATA                 0      0      30      19        0.0%
   411 ;;BITSFR19             0      0       0      20        0.0%
   412 ;;SFR19                0      0       0      20        0.0%
   413 ;;BITSFR20             0      0       0      21        0.0%
   414 ;;SFR20                0      0       0      21        0.0%
   415 ;;BITSFR21             0      0       0      22        0.0%
   416 ;;SFR21                0      0       0      22        0.0%
   417 ;;BITSFR22             0      0       0      23        0.0%
   418 ;;SFR22                0      0       0      23        0.0%
   419 ;;BITSFR23             0      0       0      24        0.0%
   420 ;;SFR23                0      0       0      24        0.0%
   421 ;;BITSFR24             0      0       0      25        0.0%
   422 ;;SFR24                0      0       0      25        0.0%
   423 ;;BITSFR25             0      0       0      26        0.0%
   424 ;;SFR25                0      0       0      26        0.0%
   425 ;;BITSFR26             0      0       0      27        0.0%
   426 ;;SFR26                0      0       0      27        0.0%
   427 ;;BITSFR27             0      0       0      28        0.0%
   428 ;;SFR27                0      0       0      28        0.0%
   429 ;;BITSFR28             0      0       0      29        0.0%
   430 ;;SFR28                0      0       0      29        0.0%
   431 ;;BITSFR29             0      0       0      30        0.0%
   432 ;;SFR29                0      0       0      30        0.0%
   433 ;;BITSFR30             0      0       0      31        0.0%
   434 ;;SFR30                0      0       0      31        0.0%
   435 ;;BITSFR31             0      0       0      32        0.0%
   436 ;;SFR31                0      0       0      32        0.0%
   437                           
   438                           	global	_main
   439                           psect	maintext,global,class=CODE,delta=2
   440                           global __pmaintext
   441  05A4                     __pmaintext:
   442                           
   443 ;; *************** function _main *****************
   444 ;; Defined at:
   445 ;;		line 251 in file "newmain.c"
   446 ;; Parameters:    Size  Location     Type
   447 ;;		None
   448 ;; Auto vars:     Size  Location     Type
   449 ;;  read            2   10[COMMON] int 
   450 ;;  rightpt         2    8[COMMON] int 
   451 ;;  leftpt          2    6[COMMON] int 
   452 ;; Return value:  Size  Location     Type
   453 ;;                  2  1050[COMMON] int 
   454 ;; Registers used:
   455 ;;		wreg, status,2, status,0, btemp+1, pclath, cstack
   456 ;; Tracked objects:
   457 ;;		On entry : 17F/0
   458 ;;		On exit  : 0/0
   459 ;;		Unchanged: 0/0
   460 ;; Data sizes:     COMMON   BANK0   BANK1   BANK2   BANK3   BANK4   BANK5   BANK6
   461 ;;      Params:         0       0       0       0       0       0       0       0
   462 ;;      Locals:         6       0       0       0       0       0       0       0
   463 ;;      Temps:          2       0       0       0       0       0       0       0
   464 ;;      Totals:         8       0       0       0       0       0       0       0
   465 ;;Total ram usage:        8 bytes
   466 ;; Hardware stack levels required when called:    2
   467 ;; This function calls:
   468 ;;		_doDelay
   469 ;;		_ADCInit
   470 ;;		_readchannel
   471 ;;		_searchTrack
   472 ;;		_controlMotor
   473 ;; This function is called by:
   474 ;;		Startup code after reset
   475 ;; This function uses a non-reentrant model
   476 ;;
   477                           psect	maintext
   478                           	file	"newmain.c"
   479                           	line	251
   480                           	global	__size_of_main
   481  0072                     	__size_of_main	equ	__end_of_main-_main
   482                           	
   483  05A4                     _main:	
   484                           	opt	stack 14
   485                           ; Regs used in _main: [wreg+status,2+status,0+btemp+1+pclath+cstack]
   486                           	line	253
   487                           	
   488  05A4                     l2553:	
   489                           ;newmain.c: 253: TRISA = 0x00;
   490  05A4  0021               	movlb 1	; select bank1
   491  05A5  018C               	clrf	(140)^080h	;volatile
   492                           	line	254
   493                           ;newmain.c: 254: TRISB = 0x00;
   494  05A6  018D               	clrf	(141)^080h	;volatile
   495                           	line	255
   496                           	
   497  05A7                     l2555:	
   498                           ;newmain.c: 255: TRISC = 0b00110000;
   499  05A7  3030               	movlw	(030h)
   500  05A8  008E               	movwf	(142)^080h	;volatile
   501                           	line	257
   502                           	
   503  05A9                     l2557:	
   504                           ;newmain.c: 257: PORTA = 0x00;
   505  05A9  0020               	movlb 0	; select bank0
   506  05AA  018C               	clrf	(12)	;volatile
   507                           	line	258
   508                           	
   509  05AB                     l2559:	
   510                           ;newmain.c: 258: PORTB = 0x00;
   511  05AB  018D               	clrf	(13)	;volatile
   512                           	line	259
   513                           	
   514  05AC                     l2561:	
   515                           ;newmain.c: 259: PORTC = 0x00;
   516  05AC  018E               	clrf	(14)	;volatile
   517                           	line	261
   518                           	
   519  05AD                     l2563:	
   520                           ;newmain.c: 261: doDelay();
   521  05AD  3186  2616  3185   	fcall	_doDelay
   522                           	line	263
   523                           	
   524  05B0                     l2565:	
   525                           ;newmain.c: 263: ADCInit ();
   526  05B0  3184  24CA  3185   	fcall	_ADCInit
   527  05B3  2DB4               	goto	l2567
   528                           	line	266
   529                           ;newmain.c: 265: int leftpt, rightpt, read;
   530                           ;newmain.c: 266: while (1)
   531                           	
   532  05B4                     l1051:	
   533                           	line	269
   534                           	
   535  05B4                     l2567:	
   536                           ;newmain.c: 267: {
   537                           ;newmain.c: 269: read = readchannel(1);
   538  05B4  3001               	movlw	low(01h)
   539  05B5  00F0               	movwf	(?_readchannel)
   540  05B6  3000               	movlw	high(01h)
   541  05B7  00F1               	movwf	((?_readchannel))+1
   542  05B8  3185  2533  3185   	fcall	_readchannel
   543  05BB  0871               	movf	(1+(?_readchannel)),w
   544  05BC  01FB               	clrf	(main@read+1)
   545  05BD  07FB               	addwf	(main@read+1)
   546  05BE  0870               	movf	(0+(?_readchannel)),w
   547  05BF  01FA               	clrf	(main@read)
   548  05C0  07FA               	addwf	(main@read)
   549                           
   550                           	line	270
   551                           	
   552  05C1                     l2569:	
   553                           ;newmain.c: 270: leftpt = (read > 70) ? 1 : 0;
   554  05C1  087B               	movf	(main@read+1),w
   555  05C2  3A80               	xorlw	80h
   556  05C3  00FF               	movwf	btemp+1
   557  05C4  3080               	movlw	(high(047h))^80h
   558  05C5  027F               	subwf	btemp+1,w
   559  05C6  1D03               	skipz
   560  05C7  2DCA               	goto	u2585
   561  05C8  3047               	movlw	low(047h)
   562  05C9  027A               	subwf	(main@read),w
   563  05CA                     u2585:
   564                           
   565  05CA  3000               	movlw	0
   566  05CB  1803               	skipnc
   567  05CC  3001               	movlw	1
   568  05CD  00F4               	movwf	(??_main+0)+0
   569  05CE  01F5               	clrf	(??_main+0)+0+1
   570  05CF  0874               	movf	0+(??_main+0)+0,w
   571  05D0  00F6               	movwf	(main@leftpt)
   572  05D1  0875               	movf	1+(??_main+0)+0,w
   573  05D2  00F7               	movwf	(main@leftpt+1)
   574                           	line	273
   575                           ;newmain.c: 273: read = readchannel(0);
   576  05D3  3000               	movlw	low(0)
   577  05D4  00F0               	movwf	(?_readchannel)
   578  05D5  3000               	movlw	high(0)
   579  05D6  00F1               	movwf	((?_readchannel))+1
   580  05D7  3185  2533  3185   	fcall	_readchannel
   581  05DA  0871               	movf	(1+(?_readchannel)),w
   582  05DB  01FB               	clrf	(main@read+1)
   583  05DC  07FB               	addwf	(main@read+1)
   584  05DD  0870               	movf	(0+(?_readchannel)),w
   585  05DE  01FA               	clrf	(main@read)
   586  05DF  07FA               	addwf	(main@read)
   587                           
   588                           	line	274
   589                           	
   590  05E0                     l2571:	
   591                           ;newmain.c: 274: rightpt = (read > 70) ? 1 : 0;
   592  05E0  087B               	movf	(main@read+1),w
   593  05E1  3A80               	xorlw	80h
   594  05E2  00FF               	movwf	btemp+1
   595  05E3  3080               	movlw	(high(047h))^80h
   596  05E4  027F               	subwf	btemp+1,w
   597  05E5  1D03               	skipz
   598  05E6  2DE9               	goto	u2595
   599  05E7  3047               	movlw	low(047h)
   600  05E8  027A               	subwf	(main@read),w
   601  05E9                     u2595:
   602                           
   603  05E9  3000               	movlw	0
   604  05EA  1803               	skipnc
   605  05EB  3001               	movlw	1
   606  05EC  00F4               	movwf	(??_main+0)+0
   607  05ED  01F5               	clrf	(??_main+0)+0+1
   608  05EE  0874               	movf	0+(??_main+0)+0,w
   609  05EF  00F8               	movwf	(main@rightpt)
   610  05F0  0875               	movf	1+(??_main+0)+0,w
   611  05F1  00F9               	movwf	(main@rightpt+1)
   612                           	line	276
   613                           	
   614  05F2                     l2573:	
   615                           ;newmain.c: 276: if((leftpt==0) && (rightpt==0))
   616  05F2  0877               	movf	((main@leftpt+1)),w
   617  05F3  0476               	iorwf	((main@leftpt)),w
   618  05F4  1D03               	skipz
   619  05F5  2DF7               	goto	u2601
   620  05F6  2DF8               	goto	u2600
   621  05F7                     u2601:
   622  05F7  2E02               	goto	l2579
   623  05F8                     u2600:
   624                           	
   625  05F8                     l2575:	
   626  05F8  0879               	movf	((main@rightpt+1)),w
   627  05F9  0478               	iorwf	((main@rightpt)),w
   628  05FA  1D03               	skipz
   629  05FB  2DFD               	goto	u2611
   630  05FC  2DFE               	goto	u2610
   631  05FD                     u2611:
   632  05FD  2E02               	goto	l2579
   633  05FE                     u2610:
   634                           	line	278
   635                           	
   636  05FE                     l2577:	
   637                           ;newmain.c: 277: {
   638                           ;newmain.c: 278: searchTrack();
   639  05FE  3185  2569  3185   	fcall	_searchTrack
   640                           	line	279
   641                           ;newmain.c: 279: }
   642  0601  2DB4               	goto	l2567
   643                           	line	280
   644                           	
   645  0602                     l1052:	
   646                           	line	282
   647                           	
   648  0602                     l2579:	
   649                           ;newmain.c: 280: else
   650                           ;newmain.c: 281: {
   651                           ;newmain.c: 282: controlMotor(leftpt, rightpt);
   652  0602  0877               	movf	(main@leftpt+1),w
   653  0603  01F1               	clrf	(?_controlMotor+1)
   654  0604  07F1               	addwf	(?_controlMotor+1)
   655  0605  0876               	movf	(main@leftpt),w
   656  0606  01F0               	clrf	(?_controlMotor)
   657  0607  07F0               	addwf	(?_controlMotor)
   658                           
   659  0608  0879               	movf	(main@rightpt+1),w
   660  0609  01F3               	clrf	1+(?_controlMotor)+02h
   661  060A  07F3               	addwf	1+(?_controlMotor)+02h
   662  060B  0878               	movf	(main@rightpt),w
   663  060C  01F2               	clrf	0+(?_controlMotor)+02h
   664  060D  07F2               	addwf	0+(?_controlMotor)+02h
   665                           
   666  060E  3184  24E3  3185   	fcall	_controlMotor
   667  0611  2DB4               	goto	l2567
   668                           	line	283
   669                           	
   670  0612                     l1053:	
   671  0612  2DB4               	goto	l2567
   672                           	line	284
   673                           	
   674  0613                     l1054:	
   675                           	line	266
   676  0613  2DB4               	goto	l2567
   677                           	
   678  0614                     l1055:	
   679                           	line	286
   680                           	
   681  0614                     l1056:	
   682                           	global	start
   683  0614  3180  2802         	ljmp	start
   684                           	opt stack 0
   685                           GLOBAL	__end_of_main
   686  0616                     	__end_of_main:
   687 ;; =============== function _main ends ============
   688                           
   689                           	signat	_main,90
   690                           	global	_doDelay
   691                           psect	text174,local,class=CODE,delta=2
   692                           global __ptext174
   693  0616                     __ptext174:
   694                           
   695 ;; *************** function _doDelay *****************
   696 ;; Defined at:
   697 ;;		line 117 in file "newmain.c"
   698 ;; Parameters:    Size  Location     Type
   699 ;;		None
   700 ;; Auto vars:     Size  Location     Type
   701 ;;  i               2   14[BANK0 ] int 
   702 ;;  i               2   12[BANK0 ] int 
   703 ;;  i               2   10[BANK0 ] int 
   704 ;;  i               2    8[BANK0 ] int 
   705 ;;  i               2    6[BANK0 ] int 
   706 ;;  i               2    4[BANK0 ] int 
   707 ;;  i               2    2[BANK0 ] int 
   708 ;;  i               2    0[BANK0 ] int 
   709 ;; Return value:  Size  Location     Type
   710 ;;		None               void
   711 ;; Registers used:
   712 ;;		wreg, status,2, status,0, btemp+1, pclath, cstack
   713 ;; Tracked objects:
   714 ;;		On entry : 0/0
   715 ;;		On exit  : 0/0
   716 ;;		Unchanged: 0/0
   717 ;; Data sizes:     COMMON   BANK0   BANK1   BANK2   BANK3   BANK4   BANK5   BANK6
   718 ;;      Params:         0       0       0       0       0       0       0       0
   719 ;;      Locals:         0      16       0       0       0       0       0       0
   720 ;;      Temps:          0       0       0       0       0       0       0       0
   721 ;;      Totals:         0      16       0       0       0       0       0       0
   722 ;;Total ram usage:       16 bytes
   723 ;; Hardware stack levels used:    1
   724 ;; Hardware stack levels required when called:    1
   725 ;; This function calls:
   726 ;;		__delay_ms
   727 ;; This function is called by:
   728 ;;		_main
   729 ;; This function uses a non-reentrant model
   730 ;;
   731                           psect	text174
   732                           	file	"newmain.c"
   733                           	line	117
   734                           	global	__size_of_doDelay
   735  01EA                     	__size_of_doDelay	equ	__end_of_doDelay-_doDelay
   736                           	
   737  0616                     _doDelay:	
   738                           	opt	stack 14
   739                           ; Regs used in _doDelay: [wreg+status,2+status,0+btemp+1+pclath+cstack]
   740                           	line	119
   741                           	
   742  0616                     l2427:	
   743                           ;newmain.c: 119: for (int i = 0; i < 12; i++)
   744  0616  0020               	movlb 0	; select bank0
   745  0617  01B0               	clrf	(doDelay@i)
   746  0618  01B1               	clrf	(doDelay@i+1)
   747                           	
   748  0619                     l2429:	
   749  0619  0831               	movf	(doDelay@i+1),w
   750  061A  3A80               	xorlw	80h
   751  061B  00FF               	movwf	btemp+1
   752  061C  3080               	movlw	(high(0Ch))^80h
   753  061D  027F               	subwf	btemp+1,w
   754  061E  1D03               	skipz
   755  061F  2E22               	goto	u2425
   756  0620  300C               	movlw	low(0Ch)
   757  0621  0230               	subwf	(doDelay@i),w
   758  0622                     u2425:
   759                           
   760  0622  1C03               	skipc
   761  0623  2E25               	goto	u2421
   762  0624  2E26               	goto	u2420
   763  0625                     u2421:
   764  0625  2E28               	goto	l1017
   765  0626                     u2420:
   766  0626  2E4D               	goto	l2441
   767                           	
   768  0627                     l2431:	
   769  0627  2E4D               	goto	l2441
   770                           	line	120
   771                           	
   772  0628                     l1017:	
   773                           	line	121
   774                           ;newmain.c: 120: {
   775                           ;newmain.c: 121: RC3 = 1;
   776  0628  0020               	movlb 0	; select bank0
   777  0629  158E               	bsf	(115/8),(115)&7
   778                           	line	122
   779                           	
   780  062A                     l2433:	
   781                           ;newmain.c: 122: _delay_ms(8);
   782  062A  3008               	movlw	low(08h)
   783  062B  00F0               	movwf	(?__delay_ms)
   784  062C  3000               	movlw	high(08h)
   785  062D  00F1               	movwf	((?__delay_ms))+1
   786  062E  3185  2503  3186   	fcall	__delay_ms
   787                           	line	123
   788                           	
   789  0631                     l2435:	
   790                           ;newmain.c: 123: RC3 = 0;
   791  0631  0020               	movlb 0	; select bank0
   792  0632  118E               	bcf	(115/8),(115)&7
   793                           	line	124
   794                           ;newmain.c: 124: _delay_ms(8);
   795  0633  3008               	movlw	low(08h)
   796  0634  00F0               	movwf	(?__delay_ms)
   797  0635  3000               	movlw	high(08h)
   798  0636  00F1               	movwf	((?__delay_ms))+1
   799  0637  3185  2503  3186   	fcall	__delay_ms
   800                           	line	119
   801                           	
   802  063A                     l2437:	
   803  063A  3001               	movlw	low(01h)
   804  063B  0020               	movlb 0	; select bank0
   805  063C  07B0               	addwf	(doDelay@i),f
   806  063D  3000               	movlw	high(01h)
   807  063E  3DB1               	addwfc	(doDelay@i+1),f
   808                           	
   809  063F                     l2439:	
   810  063F  0831               	movf	(doDelay@i+1),w
   811  0640  3A80               	xorlw	80h
   812  0641  00FF               	movwf	btemp+1
   813  0642  3080               	movlw	(high(0Ch))^80h
   814  0643  027F               	subwf	btemp+1,w
   815  0644  1D03               	skipz
   816  0645  2E48               	goto	u2435
   817  0646  300C               	movlw	low(0Ch)
   818  0647  0230               	subwf	(doDelay@i),w
   819  0648                     u2435:
   820                           
   821  0648  1C03               	skipc
   822  0649  2E4B               	goto	u2431
   823  064A  2E4C               	goto	u2430
   824  064B                     u2431:
   825  064B  2E28               	goto	l1017
   826  064C                     u2430:
   827  064C  2E4D               	goto	l2441
   828                           	
   829  064D                     l1018:	
   830                           	line	126
   831                           	
   832  064D                     l2441:	
   833                           ;newmain.c: 125: }
   834                           ;newmain.c: 126: _delay_ms(808);
   835  064D  3028               	movlw	low(0328h)
   836  064E  00F0               	movwf	(?__delay_ms)
   837  064F  3003               	movlw	high(0328h)
   838  0650  00F1               	movwf	((?__delay_ms))+1
   839  0651  3185  2503  3186   	fcall	__delay_ms
   840                           	line	130
   841                           	
   842  0654                     l2443:	
   843                           ;newmain.c: 130: for (int i = 0; i < 12; i++)
   844  0654  0020               	movlb 0	; select bank0
   845  0655  01B2               	clrf	(doDelay@i_1627)
   846  0656  01B3               	clrf	(doDelay@i_1627+1)
   847                           	
   848  0657                     l2445:	
   849  0657  0833               	movf	(doDelay@i_1627+1),w
   850  0658  3A80               	xorlw	80h
   851  0659  00FF               	movwf	btemp+1
   852  065A  3080               	movlw	(high(0Ch))^80h
   853  065B  027F               	subwf	btemp+1,w
   854  065C  1D03               	skipz
   855  065D  2E60               	goto	u2445
   856  065E  300C               	movlw	low(0Ch)
   857  065F  0232               	subwf	(doDelay@i_1627),w
   858  0660                     u2445:
   859                           
   860  0660  1C03               	skipc
   861  0661  2E63               	goto	u2441
   862  0662  2E64               	goto	u2440
   863  0663                     u2441:
   864  0663  2E66               	goto	l1019
   865  0664                     u2440:
   866  0664  2E8B               	goto	l2457
   867                           	
   868  0665                     l2447:	
   869  0665  2E8B               	goto	l2457
   870                           	line	131
   871                           	
   872  0666                     l1019:	
   873                           	line	132
   874                           ;newmain.c: 131: {
   875                           ;newmain.c: 132: RC3 = 1;
   876  0666  0020               	movlb 0	; select bank0
   877  0667  158E               	bsf	(115/8),(115)&7
   878                           	line	133
   879                           	
   880  0668                     l2449:	
   881                           ;newmain.c: 133: _delay_ms(8);
   882  0668  3008               	movlw	low(08h)
   883  0669  00F0               	movwf	(?__delay_ms)
   884  066A  3000               	movlw	high(08h)
   885  066B  00F1               	movwf	((?__delay_ms))+1
   886  066C  3185  2503  3186   	fcall	__delay_ms
   887                           	line	134
   888                           	
   889  066F                     l2451:	
   890                           ;newmain.c: 134: RC3 = 0;
   891  066F  0020               	movlb 0	; select bank0
   892  0670  118E               	bcf	(115/8),(115)&7
   893                           	line	135
   894                           ;newmain.c: 135: _delay_ms(8);
   895  0671  3008               	movlw	low(08h)
   896  0672  00F0               	movwf	(?__delay_ms)
   897  0673  3000               	movlw	high(08h)
   898  0674  00F1               	movwf	((?__delay_ms))+1
   899  0675  3185  2503  3186   	fcall	__delay_ms
   900                           	line	130
   901                           	
   902  0678                     l2453:	
   903  0678  3001               	movlw	low(01h)
   904  0679  0020               	movlb 0	; select bank0
   905  067A  07B2               	addwf	(doDelay@i_1627),f
   906  067B  3000               	movlw	high(01h)
   907  067C  3DB3               	addwfc	(doDelay@i_1627+1),f
   908                           	
   909  067D                     l2455:	
   910  067D  0833               	movf	(doDelay@i_1627+1),w
   911  067E  3A80               	xorlw	80h
   912  067F  00FF               	movwf	btemp+1
   913  0680  3080               	movlw	(high(0Ch))^80h
   914  0681  027F               	subwf	btemp+1,w
   915  0682  1D03               	skipz
   916  0683  2E86               	goto	u2455
   917  0684  300C               	movlw	low(0Ch)
   918  0685  0232               	subwf	(doDelay@i_1627),w
   919  0686                     u2455:
   920                           
   921  0686  1C03               	skipc
   922  0687  2E89               	goto	u2451
   923  0688  2E8A               	goto	u2450
   924  0689                     u2451:
   925  0689  2E66               	goto	l1019
   926  068A                     u2450:
   927  068A  2E8B               	goto	l2457
   928                           	
   929  068B                     l1020:	
   930                           	line	137
   931                           	
   932  068B                     l2457:	
   933                           ;newmain.c: 136: }
   934                           ;newmain.c: 137: _delay_ms(808);
   935  068B  3028               	movlw	low(0328h)
   936  068C  00F0               	movwf	(?__delay_ms)
   937  068D  3003               	movlw	high(0328h)
   938  068E  00F1               	movwf	((?__delay_ms))+1
   939  068F  3185  2503  3186   	fcall	__delay_ms
   940                           	line	141
   941                           	
   942  0692                     l2459:	
   943                           ;newmain.c: 141: for (int i = 0; i < 12; i++)
   944  0692  0020               	movlb 0	; select bank0
   945  0693  01B4               	clrf	(doDelay@i_1628)
   946  0694  01B5               	clrf	(doDelay@i_1628+1)
   947                           	
   948  0695                     l2461:	
   949  0695  0835               	movf	(doDelay@i_1628+1),w
   950  0696  3A80               	xorlw	80h
   951  0697  00FF               	movwf	btemp+1
   952  0698  3080               	movlw	(high(0Ch))^80h
   953  0699  027F               	subwf	btemp+1,w
   954  069A  1D03               	skipz
   955  069B  2E9E               	goto	u2465
   956  069C  300C               	movlw	low(0Ch)
   957  069D  0234               	subwf	(doDelay@i_1628),w
   958  069E                     u2465:
   959                           
   960  069E  1C03               	skipc
   961  069F  2EA1               	goto	u2461
   962  06A0  2EA2               	goto	u2460
   963  06A1                     u2461:
   964  06A1  2EA4               	goto	l1021
   965  06A2                     u2460:
   966  06A2  2EC9               	goto	l2473
   967                           	
   968  06A3                     l2463:	
   969  06A3  2EC9               	goto	l2473
   970                           	line	142
   971                           	
   972  06A4                     l1021:	
   973                           	line	143
   974                           ;newmain.c: 142: {
   975                           ;newmain.c: 143: RC3 = 1;
   976  06A4  0020               	movlb 0	; select bank0
   977  06A5  158E               	bsf	(115/8),(115)&7
   978                           	line	144
   979                           	
   980  06A6                     l2465:	
   981                           ;newmain.c: 144: _delay_ms(8);
   982  06A6  3008               	movlw	low(08h)
   983  06A7  00F0               	movwf	(?__delay_ms)
   984  06A8  3000               	movlw	high(08h)
   985  06A9  00F1               	movwf	((?__delay_ms))+1
   986  06AA  3185  2503  3186   	fcall	__delay_ms
   987                           	line	145
   988                           	
   989  06AD                     l2467:	
   990                           ;newmain.c: 145: RC3 = 0;
   991  06AD  0020               	movlb 0	; select bank0
   992  06AE  118E               	bcf	(115/8),(115)&7
   993                           	line	146
   994                           ;newmain.c: 146: _delay_ms(8);
   995  06AF  3008               	movlw	low(08h)
   996  06B0  00F0               	movwf	(?__delay_ms)
   997  06B1  3000               	movlw	high(08h)
   998  06B2  00F1               	movwf	((?__delay_ms))+1
   999  06B3  3185  2503  3186   	fcall	__delay_ms
  1000                           	line	141
  1001                           	
  1002  06B6                     l2469:	
  1003  06B6  3001               	movlw	low(01h)
  1004  06B7  0020               	movlb 0	; select bank0
  1005  06B8  07B4               	addwf	(doDelay@i_1628),f
  1006  06B9  3000               	movlw	high(01h)
  1007  06BA  3DB5               	addwfc	(doDelay@i_1628+1),f
  1008                           	
  1009  06BB                     l2471:	
  1010  06BB  0835               	movf	(doDelay@i_1628+1),w
  1011  06BC  3A80               	xorlw	80h
  1012  06BD  00FF               	movwf	btemp+1
  1013  06BE  3080               	movlw	(high(0Ch))^80h
  1014  06BF  027F               	subwf	btemp+1,w
  1015  06C0  1D03               	skipz
  1016  06C1  2EC4               	goto	u2475
  1017  06C2  300C               	movlw	low(0Ch)
  1018  06C3  0234               	subwf	(doDelay@i_1628),w
  1019  06C4                     u2475:
  1020                           
  1021  06C4  1C03               	skipc
  1022  06C5  2EC7               	goto	u2471
  1023  06C6  2EC8               	goto	u2470
  1024  06C7                     u2471:
  1025  06C7  2EA4               	goto	l1021
  1026  06C8                     u2470:
  1027  06C8  2EC9               	goto	l2473
  1028                           	
  1029  06C9                     l1022:	
  1030                           	line	148
  1031                           	
  1032  06C9                     l2473:	
  1033                           ;newmain.c: 147: }
  1034                           ;newmain.c: 148: _delay_ms(808);
  1035  06C9  3028               	movlw	low(0328h)
  1036  06CA  00F0               	movwf	(?__delay_ms)
  1037  06CB  3003               	movlw	high(0328h)
  1038  06CC  00F1               	movwf	((?__delay_ms))+1
  1039  06CD  3185  2503  3186   	fcall	__delay_ms
  1040                           	line	152
  1041                           	
  1042  06D0                     l2475:	
  1043                           ;newmain.c: 152: for (int i = 0; i < 12; i++)
  1044  06D0  0020               	movlb 0	; select bank0
  1045  06D1  01B6               	clrf	(doDelay@i_1629)
  1046  06D2  01B7               	clrf	(doDelay@i_1629+1)
  1047                           	
  1048  06D3                     l2477:	
  1049  06D3  0837               	movf	(doDelay@i_1629+1),w
  1050  06D4  3A80               	xorlw	80h
  1051  06D5  00FF               	movwf	btemp+1
  1052  06D6  3080               	movlw	(high(0Ch))^80h
  1053  06D7  027F               	subwf	btemp+1,w
  1054  06D8  1D03               	skipz
  1055  06D9  2EDC               	goto	u2485
  1056  06DA  300C               	movlw	low(0Ch)
  1057  06DB  0236               	subwf	(doDelay@i_1629),w
  1058  06DC                     u2485:
  1059                           
  1060  06DC  1C03               	skipc
  1061  06DD  2EDF               	goto	u2481
  1062  06DE  2EE0               	goto	u2480
  1063  06DF                     u2481:
  1064  06DF  2EE2               	goto	l1023
  1065  06E0                     u2480:
  1066  06E0  2F07               	goto	l2489
  1067                           	
  1068  06E1                     l2479:	
  1069  06E1  2F07               	goto	l2489
  1070                           	line	153
  1071                           	
  1072  06E2                     l1023:	
  1073                           	line	154
  1074                           ;newmain.c: 153: {
  1075                           ;newmain.c: 154: RC3 = 1;
  1076  06E2  0020               	movlb 0	; select bank0
  1077  06E3  158E               	bsf	(115/8),(115)&7
  1078                           	line	155
  1079                           	
  1080  06E4                     l2481:	
  1081                           ;newmain.c: 155: _delay_ms(8);
  1082  06E4  3008               	movlw	low(08h)
  1083  06E5  00F0               	movwf	(?__delay_ms)
  1084  06E6  3000               	movlw	high(08h)
  1085  06E7  00F1               	movwf	((?__delay_ms))+1
  1086  06E8  3185  2503  3186   	fcall	__delay_ms
  1087                           	line	156
  1088                           	
  1089  06EB                     l2483:	
  1090                           ;newmain.c: 156: RC3 = 0;
  1091  06EB  0020               	movlb 0	; select bank0
  1092  06EC  118E               	bcf	(115/8),(115)&7
  1093                           	line	157
  1094                           ;newmain.c: 157: _delay_ms(8);
  1095  06ED  3008               	movlw	low(08h)
  1096  06EE  00F0               	movwf	(?__delay_ms)
  1097  06EF  3000               	movlw	high(08h)
  1098  06F0  00F1               	movwf	((?__delay_ms))+1
  1099  06F1  3185  2503  3186   	fcall	__delay_ms
  1100                           	line	152
  1101                           	
  1102  06F4                     l2485:	
  1103  06F4  3001               	movlw	low(01h)
  1104  06F5  0020               	movlb 0	; select bank0
  1105  06F6  07B6               	addwf	(doDelay@i_1629),f
  1106  06F7  3000               	movlw	high(01h)
  1107  06F8  3DB7               	addwfc	(doDelay@i_1629+1),f
  1108                           	
  1109  06F9                     l2487:	
  1110  06F9  0837               	movf	(doDelay@i_1629+1),w
  1111  06FA  3A80               	xorlw	80h
  1112  06FB  00FF               	movwf	btemp+1
  1113  06FC  3080               	movlw	(high(0Ch))^80h
  1114  06FD  027F               	subwf	btemp+1,w
  1115  06FE  1D03               	skipz
  1116  06FF  2F02               	goto	u2495
  1117  0700  300C               	movlw	low(0Ch)
  1118  0701  0236               	subwf	(doDelay@i_1629),w
  1119  0702                     u2495:
  1120                           
  1121  0702  1C03               	skipc
  1122  0703  2F05               	goto	u2491
  1123  0704  2F06               	goto	u2490
  1124  0705                     u2491:
  1125  0705  2EE2               	goto	l1023
  1126  0706                     u2490:
  1127  0706  2F07               	goto	l2489
  1128                           	
  1129  0707                     l1024:	
  1130                           	line	159
  1131                           	
  1132  0707                     l2489:	
  1133                           ;newmain.c: 158: }
  1134                           ;newmain.c: 159: _delay_ms(808);
  1135  0707  3028               	movlw	low(0328h)
  1136  0708  00F0               	movwf	(?__delay_ms)
  1137  0709  3003               	movlw	high(0328h)
  1138  070A  00F1               	movwf	((?__delay_ms))+1
  1139  070B  3185  2503  3186   	fcall	__delay_ms
  1140                           	line	164
  1141                           	
  1142  070E                     l2491:	
  1143                           ;newmain.c: 164: for (int i = 0; i < 80; i++)
  1144  070E  0020               	movlb 0	; select bank0
  1145  070F  01B8               	clrf	(doDelay@i_1630)
  1146  0710  01B9               	clrf	(doDelay@i_1630+1)
  1147                           	
  1148  0711                     l2493:	
  1149  0711  0839               	movf	(doDelay@i_1630+1),w
  1150  0712  3A80               	xorlw	80h
  1151  0713  00FF               	movwf	btemp+1
  1152  0714  3080               	movlw	(high(050h))^80h
  1153  0715  027F               	subwf	btemp+1,w
  1154  0716  1D03               	skipz
  1155  0717  2F1A               	goto	u2505
  1156  0718  3050               	movlw	low(050h)
  1157  0719  0238               	subwf	(doDelay@i_1630),w
  1158  071A                     u2505:
  1159                           
  1160  071A  1C03               	skipc
  1161  071B  2F1D               	goto	u2501
  1162  071C  2F1E               	goto	u2500
  1163  071D                     u2501:
  1164  071D  2F20               	goto	l1025
  1165  071E                     u2500:
  1166  071E  2F45               	goto	l2505
  1167                           	
  1168  071F                     l2495:	
  1169  071F  2F45               	goto	l2505
  1170                           	line	165
  1171                           	
  1172  0720                     l1025:	
  1173                           	line	166
  1174                           ;newmain.c: 165: {
  1175                           ;newmain.c: 166: RC3 = 1;
  1176  0720  0020               	movlb 0	; select bank0
  1177  0721  158E               	bsf	(115/8),(115)&7
  1178                           	line	167
  1179                           	
  1180  0722                     l2497:	
  1181                           ;newmain.c: 167: _delay_ms(4);
  1182  0722  3004               	movlw	low(04h)
  1183  0723  00F0               	movwf	(?__delay_ms)
  1184  0724  3000               	movlw	high(04h)
  1185  0725  00F1               	movwf	((?__delay_ms))+1
  1186  0726  3185  2503  3186   	fcall	__delay_ms
  1187                           	line	168
  1188                           	
  1189  0729                     l2499:	
  1190                           ;newmain.c: 168: RC3 = 0;
  1191  0729  0020               	movlb 0	; select bank0
  1192  072A  118E               	bcf	(115/8),(115)&7
  1193                           	line	169
  1194                           ;newmain.c: 169: _delay_ms(4);
  1195  072B  3004               	movlw	low(04h)
  1196  072C  00F0               	movwf	(?__delay_ms)
  1197  072D  3000               	movlw	high(04h)
  1198  072E  00F1               	movwf	((?__delay_ms))+1
  1199  072F  3185  2503  3186   	fcall	__delay_ms
  1200                           	line	164
  1201                           	
  1202  0732                     l2501:	
  1203  0732  3001               	movlw	low(01h)
  1204  0733  0020               	movlb 0	; select bank0
  1205  0734  07B8               	addwf	(doDelay@i_1630),f
  1206  0735  3000               	movlw	high(01h)
  1207  0736  3DB9               	addwfc	(doDelay@i_1630+1),f
  1208                           	
  1209  0737                     l2503:	
  1210  0737  0839               	movf	(doDelay@i_1630+1),w
  1211  0738  3A80               	xorlw	80h
  1212  0739  00FF               	movwf	btemp+1
  1213  073A  3080               	movlw	(high(050h))^80h
  1214  073B  027F               	subwf	btemp+1,w
  1215  073C  1D03               	skipz
  1216  073D  2F40               	goto	u2515
  1217  073E  3050               	movlw	low(050h)
  1218  073F  0238               	subwf	(doDelay@i_1630),w
  1219  0740                     u2515:
  1220                           
  1221  0740  1C03               	skipc
  1222  0741  2F43               	goto	u2511
  1223  0742  2F44               	goto	u2510
  1224  0743                     u2511:
  1225  0743  2F20               	goto	l1025
  1226  0744                     u2510:
  1227  0744  2F45               	goto	l2505
  1228                           	
  1229  0745                     l1026:	
  1230                           	line	174
  1231                           	
  1232  0745                     l2505:	
  1233                           ;newmain.c: 170: }
  1234                           ;newmain.c: 174: _delay_ms(426);
  1235  0745  30AA               	movlw	low(01AAh)
  1236  0746  00F0               	movwf	(?__delay_ms)
  1237  0747  3001               	movlw	high(01AAh)
  1238  0748  00F1               	movwf	((?__delay_ms))+1
  1239  0749  3185  2503  3186   	fcall	__delay_ms
  1240                           	line	178
  1241                           	
  1242  074C                     l2507:	
  1243                           ;newmain.c: 178: for (int i = 0; i < 80; i++)
  1244  074C  0020               	movlb 0	; select bank0
  1245  074D  01BA               	clrf	(doDelay@i_1631)
  1246  074E  01BB               	clrf	(doDelay@i_1631+1)
  1247                           	
  1248  074F                     l2509:	
  1249  074F  083B               	movf	(doDelay@i_1631+1),w
  1250  0750  3A80               	xorlw	80h
  1251  0751  00FF               	movwf	btemp+1
  1252  0752  3080               	movlw	(high(050h))^80h
  1253  0753  027F               	subwf	btemp+1,w
  1254  0754  1D03               	skipz
  1255  0755  2F58               	goto	u2525
  1256  0756  3050               	movlw	low(050h)
  1257  0757  023A               	subwf	(doDelay@i_1631),w
  1258  0758                     u2525:
  1259                           
  1260  0758  1C03               	skipc
  1261  0759  2F5B               	goto	u2521
  1262  075A  2F5C               	goto	u2520
  1263  075B                     u2521:
  1264  075B  2F5E               	goto	l1027
  1265  075C                     u2520:
  1266  075C  2F83               	goto	l2521
  1267                           	
  1268  075D                     l2511:	
  1269  075D  2F83               	goto	l2521
  1270                           	line	179
  1271                           	
  1272  075E                     l1027:	
  1273                           	line	180
  1274                           ;newmain.c: 179: {
  1275                           ;newmain.c: 180: RC3 = 1;
  1276  075E  0020               	movlb 0	; select bank0
  1277  075F  158E               	bsf	(115/8),(115)&7
  1278                           	line	181
  1279                           	
  1280  0760                     l2513:	
  1281                           ;newmain.c: 181: _delay_ms(4);
  1282  0760  3004               	movlw	low(04h)
  1283  0761  00F0               	movwf	(?__delay_ms)
  1284  0762  3000               	movlw	high(04h)
  1285  0763  00F1               	movwf	((?__delay_ms))+1
  1286  0764  3185  2503  3186   	fcall	__delay_ms
  1287                           	line	182
  1288                           	
  1289  0767                     l2515:	
  1290                           ;newmain.c: 182: RC3 = 0;
  1291  0767  0020               	movlb 0	; select bank0
  1292  0768  118E               	bcf	(115/8),(115)&7
  1293                           	line	183
  1294                           ;newmain.c: 183: _delay_ms(4);
  1295  0769  3004               	movlw	low(04h)
  1296  076A  00F0               	movwf	(?__delay_ms)
  1297  076B  3000               	movlw	high(04h)
  1298  076C  00F1               	movwf	((?__delay_ms))+1
  1299  076D  3185  2503  3186   	fcall	__delay_ms
  1300                           	line	178
  1301                           	
  1302  0770                     l2517:	
  1303  0770  3001               	movlw	low(01h)
  1304  0771  0020               	movlb 0	; select bank0
  1305  0772  07BA               	addwf	(doDelay@i_1631),f
  1306  0773  3000               	movlw	high(01h)
  1307  0774  3DBB               	addwfc	(doDelay@i_1631+1),f
  1308                           	
  1309  0775                     l2519:	
  1310  0775  083B               	movf	(doDelay@i_1631+1),w
  1311  0776  3A80               	xorlw	80h
  1312  0777  00FF               	movwf	btemp+1
  1313  0778  3080               	movlw	(high(050h))^80h
  1314  0779  027F               	subwf	btemp+1,w
  1315  077A  1D03               	skipz
  1316  077B  2F7E               	goto	u2535
  1317  077C  3050               	movlw	low(050h)
  1318  077D  023A               	subwf	(doDelay@i_1631),w
  1319  077E                     u2535:
  1320                           
  1321  077E  1C03               	skipc
  1322  077F  2F81               	goto	u2531
  1323  0780  2F82               	goto	u2530
  1324  0781                     u2531:
  1325  0781  2F5E               	goto	l1027
  1326  0782                     u2530:
  1327  0782  2F83               	goto	l2521
  1328                           	
  1329  0783                     l1028:	
  1330                           	line	188
  1331                           	
  1332  0783                     l2521:	
  1333                           ;newmain.c: 184: }
  1334                           ;newmain.c: 188: _delay_ms(427);
  1335  0783  30AB               	movlw	low(01ABh)
  1336  0784  00F0               	movwf	(?__delay_ms)
  1337  0785  3001               	movlw	high(01ABh)
  1338  0786  00F1               	movwf	((?__delay_ms))+1
  1339  0787  3185  2503  3186   	fcall	__delay_ms
  1340                           	line	192
  1341                           	
  1342  078A                     l2523:	
  1343                           ;newmain.c: 192: for (int i = 0; i < 80; i++)
  1344  078A  0020               	movlb 0	; select bank0
  1345  078B  01BC               	clrf	(doDelay@i_1632)
  1346  078C  01BD               	clrf	(doDelay@i_1632+1)
  1347                           	
  1348  078D                     l2525:	
  1349  078D  083D               	movf	(doDelay@i_1632+1),w
  1350  078E  3A80               	xorlw	80h
  1351  078F  00FF               	movwf	btemp+1
  1352  0790  3080               	movlw	(high(050h))^80h
  1353  0791  027F               	subwf	btemp+1,w
  1354  0792  1D03               	skipz
  1355  0793  2F96               	goto	u2545
  1356  0794  3050               	movlw	low(050h)
  1357  0795  023C               	subwf	(doDelay@i_1632),w
  1358  0796                     u2545:
  1359                           
  1360  0796  1C03               	skipc
  1361  0797  2F99               	goto	u2541
  1362  0798  2F9A               	goto	u2540
  1363  0799                     u2541:
  1364  0799  2F9C               	goto	l1029
  1365  079A                     u2540:
  1366  079A  2FC1               	goto	l2537
  1367                           	
  1368  079B                     l2527:	
  1369  079B  2FC1               	goto	l2537
  1370                           	line	193
  1371                           	
  1372  079C                     l1029:	
  1373                           	line	194
  1374                           ;newmain.c: 193: {
  1375                           ;newmain.c: 194: RC3 = 1;
  1376  079C  0020               	movlb 0	; select bank0
  1377  079D  158E               	bsf	(115/8),(115)&7
  1378                           	line	195
  1379                           	
  1380  079E                     l2529:	
  1381                           ;newmain.c: 195: _delay_ms(4);
  1382  079E  3004               	movlw	low(04h)
  1383  079F  00F0               	movwf	(?__delay_ms)
  1384  07A0  3000               	movlw	high(04h)
  1385  07A1  00F1               	movwf	((?__delay_ms))+1
  1386  07A2  3185  2503  3186   	fcall	__delay_ms
  1387                           	line	196
  1388                           	
  1389  07A5                     l2531:	
  1390                           ;newmain.c: 196: RC3 = 0;
  1391  07A5  0020               	movlb 0	; select bank0
  1392  07A6  118E               	bcf	(115/8),(115)&7
  1393                           	line	197
  1394                           ;newmain.c: 197: _delay_ms(4);
  1395  07A7  3004               	movlw	low(04h)
  1396  07A8  00F0               	movwf	(?__delay_ms)
  1397  07A9  3000               	movlw	high(04h)
  1398  07AA  00F1               	movwf	((?__delay_ms))+1
  1399  07AB  3185  2503  3186   	fcall	__delay_ms
  1400                           	line	192
  1401                           	
  1402  07AE                     l2533:	
  1403  07AE  3001               	movlw	low(01h)
  1404  07AF  0020               	movlb 0	; select bank0
  1405  07B0  07BC               	addwf	(doDelay@i_1632),f
  1406  07B1  3000               	movlw	high(01h)
  1407  07B2  3DBD               	addwfc	(doDelay@i_1632+1),f
  1408                           	
  1409  07B3                     l2535:	
  1410  07B3  083D               	movf	(doDelay@i_1632+1),w
  1411  07B4  3A80               	xorlw	80h
  1412  07B5  00FF               	movwf	btemp+1
  1413  07B6  3080               	movlw	(high(050h))^80h
  1414  07B7  027F               	subwf	btemp+1,w
  1415  07B8  1D03               	skipz
  1416  07B9  2FBC               	goto	u2555
  1417  07BA  3050               	movlw	low(050h)
  1418  07BB  023C               	subwf	(doDelay@i_1632),w
  1419  07BC                     u2555:
  1420                           
  1421  07BC  1C03               	skipc
  1422  07BD  2FBF               	goto	u2551
  1423  07BE  2FC0               	goto	u2550
  1424  07BF                     u2551:
  1425  07BF  2F9C               	goto	l1029
  1426  07C0                     u2550:
  1427  07C0  2FC1               	goto	l2537
  1428                           	
  1429  07C1                     l1030:	
  1430                           	line	202
  1431                           	
  1432  07C1                     l2537:	
  1433                           ;newmain.c: 198: }
  1434                           ;newmain.c: 202: _delay_ms(427);
  1435  07C1  30AB               	movlw	low(01ABh)
  1436  07C2  00F0               	movwf	(?__delay_ms)
  1437  07C3  3001               	movlw	high(01ABh)
  1438  07C4  00F1               	movwf	((?__delay_ms))+1
  1439  07C5  3185  2503  3186   	fcall	__delay_ms
  1440                           	line	206
  1441                           	
  1442  07C8                     l2539:	
  1443                           ;newmain.c: 206: for (int i = 0; i < 400; i++)
  1444  07C8  0020               	movlb 0	; select bank0
  1445  07C9  01BE               	clrf	(doDelay@i_1633)
  1446  07CA  01BF               	clrf	(doDelay@i_1633+1)
  1447                           	
  1448  07CB                     l2541:	
  1449  07CB  083F               	movf	(doDelay@i_1633+1),w
  1450  07CC  3A80               	xorlw	80h
  1451  07CD  00FF               	movwf	btemp+1
  1452  07CE  3081               	movlw	(high(0190h))^80h
  1453  07CF  027F               	subwf	btemp+1,w
  1454  07D0  1D03               	skipz
  1455  07D1  2FD4               	goto	u2565
  1456  07D2  3090               	movlw	low(0190h)
  1457  07D3  023E               	subwf	(doDelay@i_1633),w
  1458  07D4                     u2565:
  1459                           
  1460  07D4  1C03               	skipc
  1461  07D5  2FD7               	goto	u2561
  1462  07D6  2FD8               	goto	u2560
  1463  07D7                     u2561:
  1464  07D7  2FDA               	goto	l1031
  1465  07D8                     u2560:
  1466  07D8  2FFF               	goto	l1033
  1467                           	
  1468  07D9                     l2543:	
  1469  07D9  2FFF               	goto	l1033
  1470                           	line	207
  1471                           	
  1472  07DA                     l1031:	
  1473                           	line	208
  1474                           ;newmain.c: 207: {
  1475                           ;newmain.c: 208: RC3 = 1;
  1476  07DA  0020               	movlb 0	; select bank0
  1477  07DB  158E               	bsf	(115/8),(115)&7
  1478                           	line	209
  1479                           	
  1480  07DC                     l2545:	
  1481                           ;newmain.c: 209: _delay_ms(1);
  1482  07DC  3001               	movlw	low(01h)
  1483  07DD  00F0               	movwf	(?__delay_ms)
  1484  07DE  3000               	movlw	high(01h)
  1485  07DF  00F1               	movwf	((?__delay_ms))+1
  1486  07E0  3185  2503  3186   	fcall	__delay_ms
  1487                           	line	210
  1488                           	
  1489  07E3                     l2547:	
  1490                           ;newmain.c: 210: RC3 = 0;
  1491  07E3  0020               	movlb 0	; select bank0
  1492  07E4  118E               	bcf	(115/8),(115)&7
  1493                           	line	211
  1494                           ;newmain.c: 211: _delay_ms(1);
  1495  07E5  3001               	movlw	low(01h)
  1496  07E6  00F0               	movwf	(?__delay_ms)
  1497  07E7  3000               	movlw	high(01h)
  1498  07E8  00F1               	movwf	((?__delay_ms))+1
  1499  07E9  3185  2503  3186   	fcall	__delay_ms
  1500                           	line	206
  1501                           	
  1502  07EC                     l2549:	
  1503  07EC  3001               	movlw	low(01h)
  1504  07ED  0020               	movlb 0	; select bank0
  1505  07EE  07BE               	addwf	(doDelay@i_1633),f
  1506  07EF  3000               	movlw	high(01h)
  1507  07F0  3DBF               	addwfc	(doDelay@i_1633+1),f
  1508                           	
  1509  07F1                     l2551:	
  1510  07F1  083F               	movf	(doDelay@i_1633+1),w
  1511  07F2  3A80               	xorlw	80h
  1512  07F3  00FF               	movwf	btemp+1
  1513  07F4  3081               	movlw	(high(0190h))^80h
  1514  07F5  027F               	subwf	btemp+1,w
  1515  07F6  1D03               	skipz
  1516  07F7  2FFA               	goto	u2575
  1517  07F8  3090               	movlw	low(0190h)
  1518  07F9  023E               	subwf	(doDelay@i_1633),w
  1519  07FA                     u2575:
  1520                           
  1521  07FA  1C03               	skipc
  1522  07FB  2FFD               	goto	u2571
  1523  07FC  2FFE               	goto	u2570
  1524  07FD                     u2571:
  1525  07FD  2FDA               	goto	l1031
  1526  07FE                     u2570:
  1527  07FE  2FFF               	goto	l1033
  1528                           	
  1529  07FF                     l1032:	
  1530                           	line	215
  1531                           	
  1532  07FF                     l1033:	
  1533  07FF  0008               	return
  1534                           	opt stack 0
  1535                           GLOBAL	__end_of_doDelay
  1536  0800                     	__end_of_doDelay:
  1537 ;; =============== function _doDelay ends ============
  1538                           
  1539                           	signat	_doDelay,88
  1540                           	global	_searchTrack
  1541                           psect	text175,local,class=CODE,delta=2
  1542                           global __ptext175
  1543  0569                     __ptext175:
  1544                           
  1545 ;; *************** function _searchTrack *****************
  1546 ;; Defined at:
  1547 ;;		line 90 in file "newmain.c"
  1548 ;; Parameters:    Size  Location     Type
  1549 ;;		None
  1550 ;; Auto vars:     Size  Location     Type
  1551 ;;		None
  1552 ;; Return value:  Size  Location     Type
  1553 ;;                  2  1008[COMMON] int 
  1554 ;; Registers used:
  1555 ;;		wreg, status,2, status,0, pclath, cstack
  1556 ;; Tracked objects:
  1557 ;;		On entry : 0/0
  1558 ;;		On exit  : 0/0
  1559 ;;		Unchanged: 0/0
  1560 ;; Data sizes:     COMMON   BANK0   BANK1   BANK2   BANK3   BANK4   BANK5   BANK6
  1561 ;;      Params:         0       0       0       0       0       0       0       0
  1562 ;;      Locals:         0       0       0       0       0       0       0       0
  1563 ;;      Temps:          0       0       0       0       0       0       0       0
  1564 ;;      Totals:         0       0       0       0       0       0       0       0
  1565 ;;Total ram usage:        0 bytes
  1566 ;; Hardware stack levels used:    1
  1567 ;; Hardware stack levels required when called:    1
  1568 ;; This function calls:
  1569 ;;		_controlMotor
  1570 ;; This function is called by:
  1571 ;;		_main
  1572 ;; This function uses a non-reentrant model
  1573 ;;
  1574                           psect	text175
  1575                           	file	"newmain.c"
  1576                           	line	90
  1577                           	global	__size_of_searchTrack
  1578  003B                     	__size_of_searchTrack	equ	__end_of_searchTrack-_searchTrack
  1579                           	
  1580  0569                     _searchTrack:	
  1581                           	opt	stack 14
  1582                           ; Regs used in _searchTrack: [wreg+status,2+status,0+pclath+cstack]
  1583                           	line	91
  1584                           	
  1585  0569                     l2249:	
  1586                           ;newmain.c: 91: if (lastMotor == 2)
  1587  0569  3002               	movlw	02h
  1588  056A  067C               	xorwf	(_lastMotor),w
  1589  056B  047D               	iorwf	(_lastMotor+1),w
  1590  056C  1D03               	skipz
  1591  056D  2D6F               	goto	u2161
  1592  056E  2D70               	goto	u2160
  1593  056F                     u2161:
  1594  056F  2D7C               	goto	l2253
  1595  0570                     u2160:
  1596                           	line	93
  1597                           	
  1598  0570                     l2251:	
  1599                           ;newmain.c: 92: {
  1600                           ;newmain.c: 93: controlMotor(1, 0);
  1601  0570  3001               	movlw	low(01h)
  1602  0571  00F0               	movwf	(?_controlMotor)
  1603  0572  3000               	movlw	high(01h)
  1604  0573  00F1               	movwf	((?_controlMotor))+1
  1605  0574  3000               	movlw	low(0)
  1606  0575  00F2               	movwf	0+(?_controlMotor)+02h
  1607  0576  3000               	movlw	high(0)
  1608  0577  00F3               	movwf	(0+(?_controlMotor)+02h)+1
  1609  0578  3184  24E3  3185   	fcall	_controlMotor
  1610                           	line	94
  1611                           ;newmain.c: 94: }
  1612  057B  2DA3               	goto	l1014
  1613                           	line	95
  1614                           	
  1615  057C                     l1009:	
  1616                           	
  1617  057C                     l2253:	
  1618                           ;newmain.c: 95: else if (lastMotor == 1)
  1619  057C  3001               	movlw	01h
  1620  057D  067C               	xorwf	(_lastMotor),w
  1621  057E  047D               	iorwf	(_lastMotor+1),w
  1622  057F  1D03               	skipz
  1623  0580  2D82               	goto	u2171
  1624  0581  2D83               	goto	u2170
  1625  0582                     u2171:
  1626  0582  2D8F               	goto	l2257
  1627  0583                     u2170:
  1628                           	line	97
  1629                           	
  1630  0583                     l2255:	
  1631                           ;newmain.c: 96: {
  1632                           ;newmain.c: 97: controlMotor(0, 1);
  1633  0583  3000               	movlw	low(0)
  1634  0584  00F0               	movwf	(?_controlMotor)
  1635  0585  3000               	movlw	high(0)
  1636  0586  00F1               	movwf	((?_controlMotor))+1
  1637  0587  3001               	movlw	low(01h)
  1638  0588  00F2               	movwf	0+(?_controlMotor)+02h
  1639  0589  3000               	movlw	high(01h)
  1640  058A  00F3               	movwf	(0+(?_controlMotor)+02h)+1
  1641  058B  3184  24E3  3185   	fcall	_controlMotor
  1642                           	line	98
  1643                           ;newmain.c: 98: }
  1644  058E  2DA3               	goto	l1014
  1645                           	line	99
  1646                           	
  1647  058F                     l1011:	
  1648                           	
  1649  058F                     l2257:	
  1650                           ;newmain.c: 99: else if (lastMotor == 0)
  1651  058F  087D               	movf	((_lastMotor+1)),w
  1652  0590  047C               	iorwf	((_lastMotor)),w
  1653  0591  1D03               	skipz
  1654  0592  2D94               	goto	u2181
  1655  0593  2D95               	goto	u2180
  1656  0594                     u2181:
  1657  0594  2DA3               	goto	l1014
  1658  0595                     u2180:
  1659                           	line	101
  1660                           	
  1661  0595                     l2259:	
  1662                           ;newmain.c: 100: {
  1663                           ;newmain.c: 101: controlMotor(1,1);
  1664  0595  3001               	movlw	low(01h)
  1665  0596  00F0               	movwf	(?_controlMotor)
  1666  0597  3000               	movlw	high(01h)
  1667  0598  00F1               	movwf	((?_controlMotor))+1
  1668  0599  3001               	movlw	low(01h)
  1669  059A  00F2               	movwf	0+(?_controlMotor)+02h
  1670  059B  3000               	movlw	high(01h)
  1671  059C  00F3               	movwf	(0+(?_controlMotor)+02h)+1
  1672  059D  3184  24E3  3185   	fcall	_controlMotor
  1673  05A0  2DA3               	goto	l1014
  1674                           	line	102
  1675                           	
  1676  05A1                     l1013:	
  1677  05A1  2DA3               	goto	l1014
  1678                           	line	103
  1679                           	
  1680  05A2                     l1012:	
  1681  05A2  2DA3               	goto	l1014
  1682                           	
  1683  05A3                     l1010:	
  1684                           	
  1685  05A3                     l1014:	
  1686  05A3  0008               	return
  1687                           	opt stack 0
  1688                           GLOBAL	__end_of_searchTrack
  1689  05A4                     	__end_of_searchTrack:
  1690 ;; =============== function _searchTrack ends ============
  1691                           
  1692                           	signat	_searchTrack,90
  1693                           	global	__delay_ms
  1694                           psect	text176,local,class=CODE,delta=2
  1695                           global __ptext176
  1696  0503                     __ptext176:
  1697                           
  1698 ;; *************** function __delay_ms *****************
  1699 ;; Defined at:
  1700 ;;		line 45 in file "newmain.c"
  1701 ;; Parameters:    Size  Location     Type
  1702 ;;  ms              2    0[COMMON] unsigned int 
  1703 ;; Auto vars:     Size  Location     Type
  1704 ;;  i               2    2[COMMON] int 
  1705 ;; Return value:  Size  Location     Type
  1706 ;;		None               void
  1707 ;; Registers used:
  1708 ;;		wreg, status,2, status,0, btemp+1
  1709 ;; Tracked objects:
  1710 ;;		On entry : 0/0
  1711 ;;		On exit  : 0/0
  1712 ;;		Unchanged: 0/0
  1713 ;; Data sizes:     COMMON   BANK0   BANK1   BANK2   BANK3   BANK4   BANK5   BANK6
  1714 ;;      Params:         2       0       0       0       0       0       0       0
  1715 ;;      Locals:         2       0       0       0       0       0       0       0
  1716 ;;      Temps:          0       0       0       0       0       0       0       0
  1717 ;;      Totals:         4       0       0       0       0       0       0       0
  1718 ;;Total ram usage:        4 bytes
  1719 ;; Hardware stack levels used:    1
  1720 ;; This function calls:
  1721 ;;		Nothing
  1722 ;; This function is called by:
  1723 ;;		_doDelay
  1724 ;; This function uses a non-reentrant model
  1725 ;;
  1726                           psect	text176
  1727                           	file	"newmain.c"
  1728                           	line	45
  1729                           	global	__size_of__delay_ms
  1730  0030                     	__size_of__delay_ms	equ	__end_of__delay_ms-__delay_ms
  1731                           	
  1732  0503                     __delay_ms:	
  1733                           	opt	stack 14
  1734                           ; Regs used in __delay_ms: [wreg+status,2+status,0+btemp+1]
  1735                           	line	46
  1736                           ;newmain.c: 46: do
  1737                           	
  1738  0503                     l995:	
  1739                           	line	48
  1740                           	
  1741  0503                     l2415:	
  1742                           ;newmain.c: 47: {
  1743                           ;newmain.c: 48: for (int i = 0; i < 5; i++)
  1744  0503  01F2               	clrf	(__delay_ms@i)
  1745  0504  01F3               	clrf	(__delay_ms@i+1)
  1746                           	
  1747  0505                     l2417:	
  1748  0505  0873               	movf	(__delay_ms@i+1),w
  1749  0506  3A80               	xorlw	80h
  1750  0507  00FF               	movwf	btemp+1
  1751  0508  3080               	movlw	(high(05h))^80h
  1752  0509  027F               	subwf	btemp+1,w
  1753  050A  1D03               	skipz
  1754  050B  2D0E               	goto	u2395
  1755  050C  3005               	movlw	low(05h)
  1756  050D  0272               	subwf	(__delay_ms@i),w
  1757  050E                     u2395:
  1758                           
  1759  050E  1C03               	skipc
  1760  050F  2D11               	goto	u2391
  1761  0510  2D12               	goto	u2390
  1762  0511                     u2391:
  1763  0511  2D14               	goto	l996
  1764  0512                     u2390:
  1765  0512  2D27               	goto	l2425
  1766                           	
  1767  0513                     l2419:	
  1768  0513  2D27               	goto	l2425
  1769                           	line	49
  1770                           	
  1771  0514                     l996:	
  1772                           	line	50
  1773                           ;newmain.c: 49: {
  1774                           ;newmain.c: 50: _nop();
  1775  0514  0000               	nop
  1776                           	line	48
  1777                           	
  1778  0515                     l2421:	
  1779  0515  3001               	movlw	low(01h)
  1780  0516  07F2               	addwf	(__delay_ms@i),f
  1781  0517  3000               	movlw	high(01h)
  1782  0518  3DF3               	addwfc	(__delay_ms@i+1),f
  1783                           	
  1784  0519                     l2423:	
  1785  0519  0873               	movf	(__delay_ms@i+1),w
  1786  051A  3A80               	xorlw	80h
  1787  051B  00FF               	movwf	btemp+1
  1788  051C  3080               	movlw	(high(05h))^80h
  1789  051D  027F               	subwf	btemp+1,w
  1790  051E  1D03               	skipz
  1791  051F  2D22               	goto	u2405
  1792  0520  3005               	movlw	low(05h)
  1793  0521  0272               	subwf	(__delay_ms@i),w
  1794  0522                     u2405:
  1795                           
  1796  0522  1C03               	skipc
  1797  0523  2D25               	goto	u2401
  1798  0524  2D26               	goto	u2400
  1799  0525                     u2401:
  1800  0525  2D14               	goto	l996
  1801  0526                     u2400:
  1802  0526  2D27               	goto	l2425
  1803                           	
  1804  0527                     l997:	
  1805                           	line	52
  1806                           	
  1807  0527                     l2425:	
  1808                           ;newmain.c: 51: }
  1809                           ;newmain.c: 52: } while(--ms);
  1810  0527  3001               	movlw	low(01h)
  1811  0528  02F0               	subwf	(__delay_ms@ms),f
  1812  0529  3000               	movlw	high(01h)
  1813  052A  3BF1               	subwfb	(__delay_ms@ms+1),f
  1814  052B  0871               	movf	(((__delay_ms@ms+1))),w
  1815  052C  0470               	iorwf	(((__delay_ms@ms))),w
  1816  052D  1D03               	skipz
  1817  052E  2D30               	goto	u2411
  1818  052F  2D31               	goto	u2410
  1819  0530                     u2411:
  1820  0530  2D03               	goto	l995
  1821  0531                     u2410:
  1822  0531  2D32               	goto	l999
  1823                           	
  1824  0532                     l998:	
  1825                           	line	53
  1826                           	
  1827  0532                     l999:	
  1828  0532  0008               	return
  1829                           	opt stack 0
  1830                           GLOBAL	__end_of__delay_ms
  1831  0533                     	__end_of__delay_ms:
  1832 ;; =============== function __delay_ms ends ============
  1833                           
  1834                           	signat	__delay_ms,4216
  1835                           	global	_readchannel
  1836                           psect	text177,local,class=CODE,delta=2
  1837                           global __ptext177
  1838  0533                     __ptext177:
  1839                           
  1840 ;; *************** function _readchannel *****************
  1841 ;; Defined at:
  1842 ;;		line 225 in file "newmain.c"
  1843 ;; Parameters:    Size  Location     Type
  1844 ;;  chan            2    0[COMMON] int 
  1845 ;; Auto vars:     Size  Location     Type
  1846 ;;		None
  1847 ;; Return value:  Size  Location     Type
  1848 ;;                  2    0[COMMON] int 
  1849 ;; Registers used:
  1850 ;;		wreg, status,2, status,0
  1851 ;; Tracked objects:
  1852 ;;		On entry : 0/0
  1853 ;;		On exit  : 0/0
  1854 ;;		Unchanged: 0/0
  1855 ;; Data sizes:     COMMON   BANK0   BANK1   BANK2   BANK3   BANK4   BANK5   BANK6
  1856 ;;      Params:         2       0       0       0       0       0       0       0
  1857 ;;      Locals:         0       0       0       0       0       0       0       0
  1858 ;;      Temps:          2       0       0       0       0       0       0       0
  1859 ;;      Totals:         4       0       0       0       0       0       0       0
  1860 ;;Total ram usage:        4 bytes
  1861 ;; Hardware stack levels used:    1
  1862 ;; This function calls:
  1863 ;;		Nothing
  1864 ;; This function is called by:
  1865 ;;		_main
  1866 ;; This function uses a non-reentrant model
  1867 ;;
  1868                           psect	text177
  1869                           	file	"newmain.c"
  1870                           	line	225
  1871                           	global	__size_of_readchannel
  1872  0036                     	__size_of_readchannel	equ	__end_of_readchannel-_readchannel
  1873                           	
  1874  0533                     _readchannel:	
  1875                           	opt	stack 15
  1876                           ; Regs used in _readchannel: [wreg+status,2+status,0]
  1877                           	line	226
  1878                           	
  1879  0533                     l1439:	
  1880                           ;newmain.c: 226: if (chan == 0)
  1881  0533  0871               	movf	((readchannel@chan+1)),w
  1882  0534  0470               	iorwf	((readchannel@chan)),w
  1883  0535  1D03               	skipz
  1884  0536  2D38               	goto	u31
  1885  0537  2D39               	goto	u30
  1886  0538                     u31:
  1887  0538  2D4D               	goto	l1451
  1888  0539                     u30:
  1889                           	line	228
  1890                           	
  1891  0539                     l1441:	
  1892                           ;newmain.c: 227: {
  1893                           ;newmain.c: 228: ADCON0 = 0b01000001;
  1894  0539  3041               	movlw	(041h)
  1895  053A  0021               	movlb 1	; select bank1
  1896  053B  009D               	movwf	(157)^080h	;volatile
  1897                           	line	230
  1898                           	
  1899  053C                     l1443:	
  1900                           ;newmain.c: 230: GO_nDONE=1;
  1901  053C  149D               	bsf	(1257/8)^080h,(1257)&7
  1902                           	line	231
  1903                           ;newmain.c: 231: while(GO_nDONE);
  1904  053D  2D3E               	goto	l1040
  1905                           	
  1906  053E                     l1041:	
  1907                           	
  1908  053E                     l1040:	
  1909  053E  189D               	btfsc	(1257/8)^080h,(1257)&7
  1910  053F  2D41               	goto	u41
  1911  0540  2D42               	goto	u40
  1912  0541                     u41:
  1913  0541  2D3E               	goto	l1040
  1914  0542                     u40:
  1915                           	
  1916  0542                     l1042:	
  1917                           	line	233
  1918                           ;newmain.c: 233: ADON=0;
  1919  0542  101D               	bcf	(1256/8)^080h,(1256)&7
  1920                           	line	235
  1921                           	
  1922  0543                     l1445:	
  1923                           ;newmain.c: 235: return ADRESH;
  1924  0543  081C               	movf	(156)^080h,w	;volatile
  1925  0544  00F2               	movwf	(??_readchannel+0)+0
  1926  0545  01F3               	clrf	(??_readchannel+0)+0+1
  1927  0546  0872               	movf	0+(??_readchannel+0)+0,w
  1928  0547  00F0               	movwf	(?_readchannel)
  1929  0548  0873               	movf	1+(??_readchannel+0)+0,w
  1930  0549  00F1               	movwf	(?_readchannel+1)
  1931  054A  2D68               	goto	l1043
  1932                           	
  1933  054B                     l1447:	
  1934  054B  2D68               	goto	l1043
  1935                           	line	236
  1936                           	
  1937  054C                     l1449:	
  1938                           ;newmain.c: 236: }
  1939  054C  2D68               	goto	l1043
  1940                           	line	237
  1941                           	
  1942  054D                     l1039:	
  1943                           	
  1944  054D                     l1451:	
  1945                           ;newmain.c: 237: else if (chan == 1)
  1946  054D  3001               	movlw	01h
  1947  054E  0670               	xorwf	(readchannel@chan),w
  1948  054F  0471               	iorwf	(readchannel@chan+1),w
  1949  0550  1D03               	skipz
  1950  0551  2D53               	goto	u51
  1951  0552  2D54               	goto	u50
  1952  0553                     u51:
  1953  0553  2D68               	goto	l1043
  1954  0554                     u50:
  1955                           	line	239
  1956                           	
  1957  0554                     l1453:	
  1958                           ;newmain.c: 238: {
  1959                           ;newmain.c: 239: ADCON0 = 0b01000101;
  1960  0554  3045               	movlw	(045h)
  1961  0555  0021               	movlb 1	; select bank1
  1962  0556  009D               	movwf	(157)^080h	;volatile
  1963                           	line	241
  1964                           	
  1965  0557                     l1455:	
  1966                           ;newmain.c: 241: GO_nDONE=1;
  1967  0557  149D               	bsf	(1257/8)^080h,(1257)&7
  1968                           	line	242
  1969                           ;newmain.c: 242: while(GO_nDONE);
  1970  0558  2D59               	goto	l1046
  1971                           	
  1972  0559                     l1047:	
  1973                           	
  1974  0559                     l1046:	
  1975  0559  189D               	btfsc	(1257/8)^080h,(1257)&7
  1976  055A  2D5C               	goto	u61
  1977  055B  2D5D               	goto	u60
  1978  055C                     u61:
  1979  055C  2D59               	goto	l1046
  1980  055D                     u60:
  1981                           	
  1982  055D                     l1048:	
  1983                           	line	244
  1984                           ;newmain.c: 244: ADON=0;
  1985  055D  101D               	bcf	(1256/8)^080h,(1256)&7
  1986                           	line	246
  1987                           	
  1988  055E                     l1457:	
  1989                           ;newmain.c: 246: return ADRESH;
  1990  055E  081C               	movf	(156)^080h,w	;volatile
  1991  055F  00F2               	movwf	(??_readchannel+0)+0
  1992  0560  01F3               	clrf	(??_readchannel+0)+0+1
  1993  0561  0872               	movf	0+(??_readchannel+0)+0,w
  1994  0562  00F0               	movwf	(?_readchannel)
  1995  0563  0873               	movf	1+(??_readchannel+0)+0,w
  1996  0564  00F1               	movwf	(?_readchannel+1)
  1997  0565  2D68               	goto	l1043
  1998                           	
  1999  0566                     l1459:	
  2000  0566  2D68               	goto	l1043
  2001                           	line	247
  2002                           	
  2003  0567                     l1045:	
  2004  0567  2D68               	goto	l1043
  2005                           	line	248
  2006                           	
  2007  0568                     l1044:	
  2008                           	
  2009  0568                     l1043:	
  2010  0568  0008               	return
  2011                           	opt stack 0
  2012                           GLOBAL	__end_of_readchannel
  2013  0569                     	__end_of_readchannel:
  2014 ;; =============== function _readchannel ends ============
  2015                           
  2016                           	signat	_readchannel,4218
  2017                           	global	_ADCInit
  2018                           psect	text178,local,class=CODE,delta=2
  2019                           global __ptext178
  2020  04CA                     __ptext178:
  2021                           
  2022 ;; *************** function _ADCInit *****************
  2023 ;; Defined at:
  2024 ;;		line 219 in file "newmain.c"
  2025 ;; Parameters:    Size  Location     Type
  2026 ;;		None
  2027 ;; Auto vars:     Size  Location     Type
  2028 ;;		None
  2029 ;; Return value:  Size  Location     Type
  2030 ;;		None               void
  2031 ;; Registers used:
  2032 ;;		wreg, status,2
  2033 ;; Tracked objects:
  2034 ;;		On entry : 0/0
  2035 ;;		On exit  : 0/0
  2036 ;;		Unchanged: 0/0
  2037 ;; Data sizes:     COMMON   BANK0   BANK1   BANK2   BANK3   BANK4   BANK5   BANK6
  2038 ;;      Params:         0       0       0       0       0       0       0       0
  2039 ;;      Locals:         0       0       0       0       0       0       0       0
  2040 ;;      Temps:          0       0       0       0       0       0       0       0
  2041 ;;      Totals:         0       0       0       0       0       0       0       0
  2042 ;;Total ram usage:        0 bytes
  2043 ;; Hardware stack levels used:    1
  2044 ;; This function calls:
  2045 ;;		Nothing
  2046 ;; This function is called by:
  2047 ;;		_main
  2048 ;; This function uses a non-reentrant model
  2049 ;;
  2050                           psect	text178
  2051                           	file	"newmain.c"
  2052                           	line	219
  2053                           	global	__size_of_ADCInit
  2054  0006                     	__size_of_ADCInit	equ	__end_of_ADCInit-_ADCInit
  2055                           	
  2056  04CA                     _ADCInit:	
  2057                           	opt	stack 15
  2058                           ; Regs used in _ADCInit: [wreg+status,2]
  2059                           	line	220
  2060                           	
  2061  04CA                     l1435:	
  2062                           ;newmain.c: 220: ANSELC = 0b00110000;
  2063  04CA  3030               	movlw	(030h)
  2064  04CB  0023               	movlb 3	; select bank3
  2065  04CC  008E               	movwf	(398)^0180h	;volatile
  2066                           	line	221
  2067                           	
  2068  04CD                     l1437:	
  2069                           ;newmain.c: 221: ADCON1 = 0x00;
  2070  04CD  0021               	movlb 1	; select bank1
  2071  04CE  019E               	clrf	(158)^080h	;volatile
  2072                           	line	222
  2073                           	
  2074  04CF                     l1036:	
  2075  04CF  0008               	return
  2076                           	opt stack 0
  2077                           GLOBAL	__end_of_ADCInit
  2078  04D0                     	__end_of_ADCInit:
  2079 ;; =============== function _ADCInit ends ============
  2080                           
  2081                           	signat	_ADCInit,88
  2082                           	global	_controlMotor
  2083                           psect	text179,local,class=CODE,delta=2
  2084                           global __ptext179
  2085  04E3                     __ptext179:
  2086                           
  2087 ;; *************** function _controlMotor *****************
  2088 ;; Defined at:
  2089 ;;		line 61 in file "newmain.c"
  2090 ;; Parameters:    Size  Location     Type
  2091 ;;  rightmotor      2    0[COMMON] int 
  2092 ;;  leftmotor       2    2[COMMON] int 
  2093 ;; Auto vars:     Size  Location     Type
  2094 ;;		None
  2095 ;; Return value:  Size  Location     Type
  2096 ;;		None               void
  2097 ;; Registers used:
  2098 ;;		wreg
  2099 ;; Tracked objects:
  2100 ;;		On entry : 0/0
  2101 ;;		On exit  : 0/0
  2102 ;;		Unchanged: 0/0
  2103 ;; Data sizes:     COMMON   BANK0   BANK1   BANK2   BANK3   BANK4   BANK5   BANK6
  2104 ;;      Params:         4       0       0       0       0       0       0       0
  2105 ;;      Locals:         0       0       0       0       0       0       0       0
  2106 ;;      Temps:          0       0       0       0       0       0       0       0
  2107 ;;      Totals:         4       0       0       0       0       0       0       0
  2108 ;;Total ram usage:        4 bytes
  2109 ;; Hardware stack levels used:    1
  2110 ;; This function calls:
  2111 ;;		Nothing
  2112 ;; This function is called by:
  2113 ;;		_searchTrack
  2114 ;;		_main
  2115 ;; This function uses a non-reentrant model
  2116 ;;
  2117                           psect	text179
  2118                           	file	"newmain.c"
  2119                           	line	61
  2120                           	global	__size_of_controlMotor
  2121  0020                     	__size_of_controlMotor	equ	__end_of_controlMotor-_controlMotor
  2122                           	
  2123  04E3                     _controlMotor:	
  2124                           	opt	stack 15
  2125                           ; Regs used in _controlMotor: [wreg]
  2126                           	line	62
  2127                           	
  2128  04E3                     l1425:	
  2129                           ;newmain.c: 62: if (rightmotor == 1)
  2130  04E3  3001               	movlw	01h
  2131  04E4  0670               	xorwf	(controlMotor@rightmotor),w
  2132  04E5  0471               	iorwf	(controlMotor@rightmotor+1),w
  2133  04E6  1D03               	skipz
  2134  04E7  2CE9               	goto	u11
  2135  04E8  2CEA               	goto	u10
  2136  04E9                     u11:
  2137  04E9  2CED               	goto	l1002
  2138  04EA                     u10:
  2139                           	line	64
  2140                           	
  2141  04EA                     l1427:	
  2142                           ;newmain.c: 63: {
  2143                           ;newmain.c: 64: RC6 = 1;
  2144  04EA  0020               	movlb 0	; select bank0
  2145  04EB  170E               	bsf	(118/8),(118)&7
  2146                           	line	65
  2147                           ;newmain.c: 65: }
  2148  04EC  2CF3               	goto	l1003
  2149                           	line	66
  2150                           	
  2151  04ED                     l1002:	
  2152                           	line	68
  2153                           ;newmain.c: 66: else
  2154                           ;newmain.c: 67: {
  2155                           ;newmain.c: 68: RC6 = 0;
  2156  04ED  0020               	movlb 0	; select bank0
  2157  04EE  130E               	bcf	(118/8),(118)&7
  2158                           	line	69
  2159                           	
  2160  04EF                     l1429:	
  2161                           ;newmain.c: 69: lastMotor = 1;
  2162  04EF  3001               	movlw	low(01h)
  2163  04F0  00FC               	movwf	(_lastMotor)
  2164  04F1  3000               	movlw	high(01h)
  2165  04F2  00FD               	movwf	((_lastMotor))+1
  2166                           	line	70
  2167                           	
  2168  04F3                     l1003:	
  2169                           	line	73
  2170                           ;newmain.c: 70: }
  2171                           ;newmain.c: 73: if (leftmotor == 1)
  2172  04F3  3001               	movlw	01h
  2173  04F4  0672               	xorwf	(controlMotor@leftmotor),w
  2174  04F5  0473               	iorwf	(controlMotor@leftmotor+1),w
  2175  04F6  1D03               	skipz
  2176  04F7  2CF9               	goto	u21
  2177  04F8  2CFA               	goto	u20
  2178  04F9                     u21:
  2179  04F9  2CFC               	goto	l1004
  2180  04FA                     u20:
  2181                           	line	75
  2182                           	
  2183  04FA                     l1431:	
  2184                           ;newmain.c: 74: {
  2185                           ;newmain.c: 75: RC2 = 1;
  2186  04FA  150E               	bsf	(114/8),(114)&7
  2187                           	line	76
  2188                           ;newmain.c: 76: }
  2189  04FB  2D02               	goto	l1006
  2190                           	line	77
  2191                           	
  2192  04FC                     l1004:	
  2193                           	line	79
  2194                           ;newmain.c: 77: else
  2195                           ;newmain.c: 78: {
  2196                           ;newmain.c: 79: RC2 = 0;
  2197  04FC  110E               	bcf	(114/8),(114)&7
  2198                           	line	80
  2199                           	
  2200  04FD                     l1433:	
  2201                           ;newmain.c: 80: lastMotor = 2;
  2202  04FD  3002               	movlw	low(02h)
  2203  04FE  00FC               	movwf	(_lastMotor)
  2204  04FF  3000               	movlw	high(02h)
  2205  0500  00FD               	movwf	((_lastMotor))+1
  2206  0501  2D02               	goto	l1006
  2207                           	line	81
  2208                           	
  2209  0502                     l1005:	
  2210                           	line	82
  2211                           	
  2212  0502                     l1006:	
  2213  0502  0008               	return
  2214                           	opt stack 0
  2215                           GLOBAL	__end_of_controlMotor
  2216  0503                     	__end_of_controlMotor:
  2217 ;; =============== function _controlMotor ends ============
  2218                           
  2219                           	signat	_controlMotor,8312
  2220                           psect	text180,local,class=CODE,delta=2
  2221                           global __ptext180
  2222  0000                     __ptext180:
  2223                           	global	btemp
  2224  007E                     	btemp set 07Eh
  2225                           
  2226                           	DABS	1,126,2	;btemp
  2227                           	global	wtemp0
  2228  007E                     	wtemp0 set btemp


HI-TECH Software PICC Macro Assembler V9.82 build 9453 
Symbol Table                                                                                   Sat May 19 17:35:13 2012

                    u10 04EA                      u11 04E9                      u20 04FA                      u21 04F9  
                    u30 0539                      u31 0538                      u40 0542                      u41 0541  
                    u50 0554                      u51 0553                      u60 055D                      u61 055C  
                   l995 0503                     l996 0514                     l997 0527                     l998 0532  
                   l999 0532                     _RC2 0072                     _RC3 0073                     _RC6 0076  
       __end_of_ADCInit 04D0                     wreg 0009                    l1002 04ED                    l1010 05A3  
                  l1003 04F3                    l1011 058F                    l1004 04FC                    l1012 05A2  
                  l1020 068B                    l1005 0502                    l1013 05A1                    l1021 06A4  
                  l1006 0502                    l1014 05A3                    l1030 07C1                    l1022 06C9  
                  l1031 07DA                    l1023 06E2                    l1040 053E                    l1032 07FF  
                  l1024 0707                    l1041 053E                    l1009 057C                    l1033 07FF  
                  l1025 0720                    l1017 0628                    l1042 0542                    l1026 0745  
                  l1018 064D                    l1043 0568                    l1027 075E                    l1019 0666  
                  l1051 05B4                    l1036 04CF                    l1044 0568                    l1028 0783  
                  l1052 0602                    l1045 0567                    l1029 079C                    l1053 0612  
                  l1046 0559                    l1054 0613                    l1047 0559                    l1039 054D  
                  l1055 0614                    l1048 055D                    l1056 0614                    l1431 04FA  
                  l1433 04FD                    l1425 04E3                    l1441 0539                    l1427 04EA  
                  l1435 04CA                    l1443 053C                    l1451 054D                    l2251 0570  
                  l1429 04EF                    l1437 04CD                    l1453 0554                    l1445 0543  
                  l2421 0515                    l2253 057C                    l2501 0732                    l1455 0557  
                  l1447 054B                    l1439 0533                    l2423 0519                    l2415 0503  
                  l2255 0583                    l2511 075D                    l2503 0737                    l2431 0627  
                  l1457 055E                    l1449 054C                    l2425 0527                    l2417 0505  
                  l2257 058F                    l2249 0569                    l2513 0760                    l2521 0783  
                  l2505 0745                    l2433 062A                    l2441 064D                    l1459 0566  
                  l2419 0513                    l2259 0595                    l2531 07A5                    l2523 078A  
                  l2515 0767                    l2507 074C                    l2451 066F                    l2443 0654  
                  l2435 0631                    l2427 0616                    l2541 07CB                    l2533 07AE  
                  l2525 078D                    l2517 0770                    l2509 074F                    l2461 0695  
                  l2453 0678                    l2445 0657                    l2437 063A                    l2429 0619  
                  l2551 07F1                    l2543 07D9                    l2535 07B3                    l2527 079B  
                  l2519 0775                    l2471 06BB                    l2463 06A3                    l2455 067D  
                  l2447 0665                    l2439 063F                    l2545 07DC                    l2529 079E  
                  l2537 07C1                    l2481 06E4                    l2465 06A6                    l2473 06C9  
                  l2449 0668                    l2457 068B                    l2561 05AC                    l2553 05A4  
                  l2547 07E3                    l2539 07C8                    l2491 070E                    l2483 06EB  
                  l2475 06D0                    l2467 06AD                    l2459 0692                    l2571 05E0  
                  l2563 05AD                    l2555 05A7                    l2549 07EC                    l2493 0711  
                  l2485 06F4                    l2477 06D3                    l2469 06B6                    l2573 05F2  
                  l2565 05B0                    l2557 05A9                    l2495 071F                    l2487 06F9  
                  l2479 06E1                    l2575 05F8                    l2567 05B4                    l2559 05AB  
                  l2497 0722                    l2489 0707                    l2577 05FE                    l2569 05C1  
                  l2499 0729                    l2579 0602                    _ADON 04E8                    u2400 0526  
                  u2160 0570                    u2401 0525                    u2161 056F                    u2410 0531  
                  u2170 0583                    u2411 0530                    u2171 0582                    u2180 0595  
                  u2500 071E                    u2420 0626                    u2405 0522                    u2181 0594  
                  u2501 071D                    u2421 0625                    u2510 0744                    u2430 064C  
                  u2511 0743                    u2431 064B                    u2520 075C                    u2440 0664  
                  u2600 05F8                    u2521 075B                    u2505 071A                    u2441 0663  
                  u2425 0622                    u2601 05F7                    u2530 0782                    u2450 068A  
                  u2610 05FE                    u2531 0781                    u2515 0740                    u2451 0689  
                  u2435 0648                    u2611 05FD                    u2540 079A                    u2460 06A2  
                  u2541 0799                    u2525 0758                    u2461 06A1                    u2445 0660  
                  u2390 0512                    u2550 07C0                    u2470 06C8                    u2391 0511  
                  u2551 07BF                    u2535 077E                    u2471 06C7                    u2455 0686  
                  u2560 07D8                    u2480 06E0                    u2561 07D7                    u2545 0796  
                  u2481 06DF                    u2465 069E                    u2570 07FE                    u2490 0706  
                  u2395 050E                    u2571 07FD                    u2555 07BC                    u2491 0705  
                  u2475 06C4                    u2565 07D4                    u2485 06DC                    u2575 07FA  
                  u2495 0702                    u2585 05CA                    u2595 05E9                    _main 05A4  
           main@rightpt 0078                    fsr0h 0005                    fsr0l 0004                    indf0 0000  
                  btemp 007E                    _stop 0028                    start 0002           ?_controlMotor 0070  
                 ?_main 0070         __end_of_doDelay 0800            __delay_ms@ms 0070                   _PORTA 000C  
                 _PORTB 000D                   _PORTC 000E                   _TRISA 008C                   _TRISB 008D  
                 _TRISC 008E            ?_readchannel 0070                   _count 0020                   _ticks 002E  
                 _start 0024                   wtemp0 007E            __end_of_main 0616          ??_controlMotor 0074  
          ?_searchTrack 0070               ??_ADCInit 0070                  ??_main 0074                  _ADCON0 009D  
                _ADCON1 009E                  _ADRESH 009C                  _ANSELC 018E               ??_doDelay 0074  
                clrloop 04D1      __size_of__delay_ms 0030          __pcstackCOMMON 0070              __pbssBANK0 0020  
  __size_of_readchannel 0036    __end_of_controlMotor 0503              __pmaintext 05A4                 _ADCInit 04CA  
  __size_of_searchTrack 003B       __end_of__delay_ms 0533                 _doDelay 0616                 _clock_t 002C  
  end_of_initialization 04E0   __size_of_controlMotor 0020              main@leftpt 0076             __delay_ms@i 0072  
          _controlMotor 04E3     start_initialization 04D6                ?_ADCInit 0070             __pbssCOMMON 007C  
         __pcstackBANK0 0030           ??_readchannel 0072               __delay_ms 0503               __ptext180 0000  
             __ptext173 0000               __ptext174 0616               __ptext175 0569               __ptext176 0503  
             __ptext177 0533               __ptext178 04CA               __ptext179 04E3           ??_searchTrack 0074  
              ?_doDelay 0070               _lastMotor 007C              ?__delay_ms 0070     __end_of_readchannel 0569  
controlMotor@rightmotor 0070                _GO_nDONE 04E9        __size_of_ADCInit 0006     __end_of_searchTrack 05A4  
         doDelay@i_1630 0038           doDelay@i_1631 003A           doDelay@i_1632 003C           doDelay@i_1633 003E  
         doDelay@i_1627 0032           doDelay@i_1628 0034           doDelay@i_1629 0036        __size_of_doDelay 01EA  
 controlMotor@leftmotor 0072             ??__delay_ms 0072             _readchannel 0533                doDelay@i 0030  
       readchannel@chan 0070           __size_of_main 0072                clear_ram 04D0             _searchTrack 0569  
              main@read 007A  
