

HI-TECH Software PIC LITE Macro Assembler V9.82 build 9453 
                                                                                               Fri May 18 20:50:57 2012

HI-TECH Software Omniscient Code Generator (Lite mode) build 9453
     1  0000                     opt subtitle "HI-TECH Software Omniscient Code Generator (Lite mode) build 9453"
     2                           
     3                           opt pagewidth 120
     4                           
     5                           	opt lm
     6                           
     7                           	processor	16LF1516
     8                           clrc	macro
     9                           	bcf	3,0
    10  0000                     	endm
    11                           clrz	macro
    12                           	bcf	3,2
    13  0000                     	endm
    14                           setc	macro
    15                           	bsf	3,0
    16  0000                     	endm
    17                           setz	macro
    18                           	bsf	3,2
    19  0000                     	endm
    20                           skipc	macro
    21                           	btfss	3,0
    22  0000                     	endm
    23                           skipz	macro
    24                           	btfss	3,2
    25  0000                     	endm
    26                           skipnc	macro
    27                           	btfsc	3,0
    28  0000                     	endm
    29                           skipnz	macro
    30                           	btfsc	3,2
    31  0000                     	endm
    32  0000                     indf	equ	0
    33  0000                     indf0	equ	0
    34  0001                     indf1	equ	1
    35  0002                     pc	equ	2
    36  0002                     pcl	equ	2
    37  0003                     status	equ	3
    38  0004                     fsr0l	equ	4
    39  0005                     fsr0h	equ	5
    40  0006                     fsr1l	equ	6
    41  0007                     fsr1h	equ	7
    42  0008                     bsr	equ	8
    43  0009                     wreg	equ	9
    44  000B                     intcon	equ	11
    45  0001                     c	equ	1
    46  0000                     z	equ	0
    47  000A                     pclath	equ	10
    48                           # 18 "newmain.c"
    49                           	psect config,class=CONFIG,delta=2 ;#
    50                           # 18 "newmain.c"
    51  8007  F7E4               	dw 0xFFFC & 0xFFE7 & 0xF7FF ;#
    52                           	FNCALL	_main,_doDelay
    53                           	FNCALL	_main,_ADCInit
    54                           	FNCALL	_main,_readchannel
    55                           	FNCALL	_main,_searchTrack
    56                           	FNCALL	_main,_controlMotor
    57                           	FNCALL	_doDelay,__delay_ms
    58                           	FNCALL	_searchTrack,_controlMotor
    59                           	FNROOT	_main
    60                           	global	_count
    61                           	global	_start
    62                           	global	_stop
    63                           	global	_clock_t
    64                           	global	_ignore
    65                           	global	_lastMotor
    66                           	global	_ticks
    67                           	global	_PORTA
    68                           psect	text186,local,class=CODE,delta=2
    69                           global __ptext186
    70  0000                     __ptext186:
    71  000C                     _PORTA	set	12
    72                           	global	_PORTB
    73  000D                     _PORTB	set	13
    74                           	global	_PORTC
    75  000E                     _PORTC	set	14
    76                           	global	_RC2
    77  0072                     _RC2	set	114
    78                           	global	_RC3
    79  0073                     _RC3	set	115
    80                           	global	_RC6
    81  0076                     _RC6	set	118
    82                           	global	_RC7
    83  0077                     _RC7	set	119
    84                           	global	_ADCON0
    85  009D                     _ADCON0	set	157
    86                           	global	_ADCON1
    87  009E                     _ADCON1	set	158
    88                           	global	_ADRESH
    89  009C                     _ADRESH	set	156
    90                           	global	_TRISA
    91  008C                     _TRISA	set	140
    92                           	global	_TRISB
    93  008D                     _TRISB	set	141
    94                           	global	_TRISC
    95  008E                     _TRISC	set	142
    96                           	global	_ADON
    97  04E8                     _ADON	set	1256
    98                           	global	_GO_nDONE
    99  04E9                     _GO_nDONE	set	1257
   100                           	global	_ANSELC
   101  018E                     _ANSELC	set	398
   102                           	file	"/tmp/cgtbuL5Vf"
   103                           	line	#
   104                           psect cinit,class=CODE,delta=2
   105                           global start_initialization
   106  0576                     start_initialization:
   107                           
   108                           psect	bssBANK0,class=BANK0,space=1
   109                           global __pbssBANK0
   110  0020                     __pbssBANK0:
   111  0020                     _count:
   112  0020                            ds      4
   113                           
   114  0024                     _start:
   115  0024                            ds      4
   116                           
   117  0028                     _stop:
   118  0028                            ds      4
   119                           
   120  002C                     _clock_t:
   121  002C                            ds      2
   122                           
   123  002E                     _ignore:
   124  002E                            ds      2
   125                           
   126  0030                     _lastMotor:
   127  0030                            ds      2
   128                           
   129  0032                     _ticks:
   130  0032                            ds      2
   131                           
   132                           psect clrtext,class=CODE,delta=2
   133                           global clear_ram
   134                           ;	Called with FSR0 containing the base address, and
   135                           ;	WREG with the size to clear
   136  0570                     clear_ram:
   137  0570  0064               	clrwdt			;clear the watchdog before getting into this loop
   138  0571                     clrloop:
   139  0571  0180               	clrf	indf0		;clear RAM location pointed to by FSR
   140  0572  3101               	addfsr	0,1
   141  0573  0B89               	decfsz wreg		;Have we reached the end of clearing yet?
   142  0574  2D71               	goto clrloop	;have we reached the end yet?
   143  0575  3400               	retlw	0		;all done for this memory range, return
   144                           ; Clear objects allocated to BANK0
   145                           psect cinit,class=CODE,delta=2
   146                           	global __pbssBANK0
   147  0576  3020               	movlw	low(__pbssBANK0)
   148  0577  0084               	movwf	fsr0l
   149  0578  3000               	movlw	high(__pbssBANK0)
   150  0579  0085               	movwf	fsr0h
   151  057A  3014               	movlw	014h
   152  057B  3185  2570  3185   	fcall	clear_ram
   153                           psect cinit,class=CODE,delta=2
   154                           global end_of_initialization
   155                           
   156                           ;End of C runtime variable initialization code
   157                           
   158  057E                     end_of_initialization:
   159  057E  0020               movlb 0
   160  057F  3186  2E57         ljmp _main	;jump to C main() function
   161                           psect	cstackCOMMON,class=COMMON,space=1
   162                           global __pcstackCOMMON
   163  0070                     __pcstackCOMMON:
   164                           	global	?__delay_ms
   165  0070                     ?__delay_ms:	; 0 bytes @ 0x0
   166                           	global	?_controlMotor
   167  0070                     ?_controlMotor:	; 0 bytes @ 0x0
   168                           	global	?_doDelay
   169  0070                     ?_doDelay:	; 0 bytes @ 0x0
   170                           	global	?_ADCInit
   171  0070                     ?_ADCInit:	; 0 bytes @ 0x0
   172                           	global	??_ADCInit
   173  0070                     ??_ADCInit:	; 0 bytes @ 0x0
   174                           	global	?_searchTrack
   175  0070                     ?_searchTrack:	; 2 bytes @ 0x0
   176                           	global	?_readchannel
   177  0070                     ?_readchannel:	; 2 bytes @ 0x0
   178                           	global	?_main
   179  0070                     ?_main:	; 2 bytes @ 0x0
   180                           	global	__delay_ms@ms
   181  0070                     __delay_ms@ms:	; 2 bytes @ 0x0
   182                           	global	controlMotor@Leftpt
   183  0070                     controlMotor@Leftpt:	; 2 bytes @ 0x0
   184                           	global	readchannel@chan
   185  0070                     readchannel@chan:	; 2 bytes @ 0x0
   186  0070                     	ds	2
   187                           	global	??__delay_ms
   188  0072                     ??__delay_ms:	; 0 bytes @ 0x2
   189                           	global	??_readchannel
   190  0072                     ??_readchannel:	; 0 bytes @ 0x2
   191                           	global	__delay_ms@i
   192  0072                     __delay_ms@i:	; 2 bytes @ 0x2
   193                           	global	controlMotor@Rightpt
   194  0072                     controlMotor@Rightpt:	; 2 bytes @ 0x2
   195  0072                     	ds	2
   196                           	global	??_controlMotor
   197  0074                     ??_controlMotor:	; 0 bytes @ 0x4
   198                           	global	??_searchTrack
   199  0074                     ??_searchTrack:	; 0 bytes @ 0x4
   200                           	global	??_doDelay
   201  0074                     ??_doDelay:	; 0 bytes @ 0x4
   202                           	global	doDelay@i
   203  0074                     doDelay@i:	; 2 bytes @ 0x4
   204  0074                     	ds	2
   205                           	global	doDelay@i_1628
   206  0076                     doDelay@i_1628:	; 2 bytes @ 0x6
   207  0076                     	ds	2
   208                           	global	doDelay@i_1629
   209  0078                     doDelay@i_1629:	; 2 bytes @ 0x8
   210  0078                     	ds	2
   211                           	global	doDelay@i_1630
   212  007A                     doDelay@i_1630:	; 2 bytes @ 0xA
   213  007A                     	ds	2
   214                           	global	??_main
   215  007C                     ??_main:	; 0 bytes @ 0xC
   216  007C                     	ds	2
   217                           psect	cstackBANK0,class=BANK0,space=1
   218                           global __pcstackBANK0
   219  0034                     __pcstackBANK0:
   220                           	global	main@leftpt
   221  0034                     main@leftpt:	; 2 bytes @ 0x0
   222  0034                     	ds	2
   223                           	global	main@rightpt
   224  0036                     main@rightpt:	; 2 bytes @ 0x2
   225  0036                     	ds	2
   226                           	global	main@read
   227  0038                     main@read:	; 2 bytes @ 0x4
   228  0038                     	ds	2
   229 ;;Data sizes: Strings 0, constant 0, data 0, bss 20, persistent 0 stack 0
   230 ;;Auto spaces:   Size  Autos    Used
   231 ;; COMMON          14     14      14
   232 ;; BANK0           80      6      26
   233 ;; BANK1           80      0       0
   234 ;; BANK2           80      0       0
   235 ;; BANK3           80      0       0
   236 ;; BANK4           80      0       0
   237 ;; BANK5           80      0       0
   238 ;; BANK6           16      0       0
   239                           
   240 ;;
   241 ;; Pointer list with targets:
   242                           
   243 ;; ?_readchannel	int  size(1) Largest target is 0
   244 ;;
   245                           
   246                           
   247 ;;
   248 ;; Critical Paths under _main in COMMON
   249 ;;
   250 ;;   _main->_doDelay
   251 ;;   _doDelay->__delay_ms
   252 ;;   _searchTrack->_controlMotor
   253 ;;
   254 ;; Critical Paths under _main in BANK0
   255 ;;
   256 ;;   None.
   257 ;;
   258 ;; Critical Paths under _main in BANK1
   259 ;;
   260 ;;   None.
   261 ;;
   262 ;; Critical Paths under _main in BANK2
   263 ;;
   264 ;;   None.
   265 ;;
   266 ;; Critical Paths under _main in BANK3
   267 ;;
   268 ;;   None.
   269 ;;
   270 ;; Critical Paths under _main in BANK4
   271 ;;
   272 ;;   None.
   273 ;;
   274 ;; Critical Paths under _main in BANK5
   275 ;;
   276 ;;   None.
   277 ;;
   278 ;; Critical Paths under _main in BANK6
   279 ;;
   280 ;;   None.
   281                           
   282 ;;
   283 ;;Main: autosize = 0, tempsize = 2, incstack = 0, save=0
   284 ;;
   285                           
   286 ;;
   287 ;;Call Graph Tables:
   288 ;;
   289 ;; ---------------------------------------------------------------------------------
   290 ;; (Depth) Function   	        Calls       Base Space   Used Autos Params    Refs
   291 ;; ---------------------------------------------------------------------------------
   292 ;; (0) _main                                                 8     8      0     520
   293 ;;                                             12 COMMON     2     2      0
   294 ;;                                              0 BANK0      6     6      0
   295 ;;                            _doDelay
   296 ;;                            _ADCInit
   297 ;;                        _readchannel
   298 ;;                        _searchTrack
   299 ;;                       _controlMotor
   300 ;; ---------------------------------------------------------------------------------
   301 ;; (1) _doDelay                                              8     8      0     252
   302 ;;                                              4 COMMON     8     8      0
   303 ;;                          __delay_ms
   304 ;; ---------------------------------------------------------------------------------
   305 ;; (1) _searchTrack                                          0     0      0      44
   306 ;;                       _controlMotor
   307 ;; ---------------------------------------------------------------------------------
   308 ;; (2) __delay_ms                                            4     2      2      68
   309 ;;                                              0 COMMON     4     2      2
   310 ;; ---------------------------------------------------------------------------------
   311 ;; (1) _readchannel                                          4     2      2      44
   312 ;;                                              0 COMMON     4     2      2
   313 ;; ---------------------------------------------------------------------------------
   314 ;; (1) _ADCInit                                              0     0      0       0
   315 ;; ---------------------------------------------------------------------------------
   316 ;; (1) _controlMotor                                         4     0      4      44
   317 ;;                                              0 COMMON     4     0      4
   318 ;; ---------------------------------------------------------------------------------
   319 ;; Estimated maximum stack depth 2
   320 ;; ---------------------------------------------------------------------------------
   321                           
   322 ;; Call Graph Graphs:
   323                           
   324 ;; _main (ROOT)
   325 ;;   _doDelay
   326 ;;     __delay_ms
   327 ;;   _ADCInit
   328 ;;   _readchannel
   329 ;;   _searchTrack
   330 ;;     _controlMotor
   331 ;;   _controlMotor
   332 ;;
   333                           
   334 ;; Address spaces:
   335                           
   336 ;;Name               Size   Autos  Total    Cost      Usage
   337 ;;BIGRAM             1F0      0       0       0        0.0%
   338 ;;NULL                 0      0       0       0        0.0%
   339 ;;CODE                 0      0       0       0        0.0%
   340 ;;BITCOMMON            E      0       0       1        0.0%
   341 ;;BITSFR0              0      0       0       1        0.0%
   342 ;;SFR0                 0      0       0       1        0.0%
   343 ;;COMMON               E      E       E       2      100.0%
   344 ;;BITSFR1              0      0       0       2        0.0%
   345 ;;SFR1                 0      0       0       2        0.0%
   346 ;;BITSFR2              0      0       0       3        0.0%
   347 ;;SFR2                 0      0       0       3        0.0%
   348 ;;STACK                0      0       2       3        0.0%
   349 ;;BITSFR3              0      0       0       4        0.0%
   350 ;;SFR3                 0      0       0       4        0.0%
   351 ;;ABS                  0      0      28       4        0.0%
   352 ;;BITBANK0            50      0       0       5        0.0%
   353 ;;BITSFR4              0      0       0       5        0.0%
   354 ;;SFR4                 0      0       0       5        0.0%
   355 ;;BANK0               50      6      1A       6       32.5%
   356 ;;BITSFR5              0      0       0       6        0.0%
   357 ;;SFR5                 0      0       0       6        0.0%
   358 ;;BITBANK1            50      0       0       7        0.0%
   359 ;;BITSFR6              0      0       0       7        0.0%
   360 ;;SFR6                 0      0       0       7        0.0%
   361 ;;BANK1               50      0       0       8        0.0%
   362 ;;BITSFR7              0      0       0       8        0.0%
   363 ;;SFR7                 0      0       0       8        0.0%
   364 ;;BITBANK2            50      0       0       9        0.0%
   365 ;;BITSFR8              0      0       0       9        0.0%
   366 ;;SFR8                 0      0       0       9        0.0%
   367 ;;BANK2               50      0       0      10        0.0%
   368 ;;BITSFR9              0      0       0      10        0.0%
   369 ;;SFR9                 0      0       0      10        0.0%
   370 ;;BITBANK3            50      0       0      11        0.0%
   371 ;;BITSFR10             0      0       0      11        0.0%
   372 ;;SFR10                0      0       0      11        0.0%
   373 ;;BANK3               50      0       0      12        0.0%
   374 ;;BITSFR11             0      0       0      12        0.0%
   375 ;;SFR11                0      0       0      12        0.0%
   376 ;;BITBANK4            50      0       0      13        0.0%
   377 ;;BITSFR12             0      0       0      13        0.0%
   378 ;;SFR12                0      0       0      13        0.0%
   379 ;;BANK4               50      0       0      14        0.0%
   380 ;;BITSFR13             0      0       0      14        0.0%
   381 ;;SFR13                0      0       0      14        0.0%
   382 ;;BITBANK5            50      0       0      15        0.0%
   383 ;;BITSFR14             0      0       0      15        0.0%
   384 ;;SFR14                0      0       0      15        0.0%
   385 ;;BANK5               50      0       0      16        0.0%
   386 ;;BITSFR15             0      0       0      16        0.0%
   387 ;;SFR15                0      0       0      16        0.0%
   388 ;;BITBANK6            10      0       0      17        0.0%
   389 ;;BITSFR16             0      0       0      17        0.0%
   390 ;;SFR16                0      0       0      17        0.0%
   391 ;;BANK6               10      0       0      18        0.0%
   392 ;;BITSFR17             0      0       0      18        0.0%
   393 ;;SFR17                0      0       0      18        0.0%
   394 ;;BITSFR18             0      0       0      19        0.0%
   395 ;;SFR18                0      0       0      19        0.0%
   396 ;;DATA                 0      0      2A      19        0.0%
   397 ;;BITSFR19             0      0       0      20        0.0%
   398 ;;SFR19                0      0       0      20        0.0%
   399 ;;BITSFR20             0      0       0      21        0.0%
   400 ;;SFR20                0      0       0      21        0.0%
   401 ;;BITSFR21             0      0       0      22        0.0%
   402 ;;SFR21                0      0       0      22        0.0%
   403 ;;BITSFR22             0      0       0      23        0.0%
   404 ;;SFR22                0      0       0      23        0.0%
   405 ;;BITSFR23             0      0       0      24        0.0%
   406 ;;SFR23                0      0       0      24        0.0%
   407 ;;BITSFR24             0      0       0      25        0.0%
   408 ;;SFR24                0      0       0      25        0.0%
   409 ;;BITSFR25             0      0       0      26        0.0%
   410 ;;SFR25                0      0       0      26        0.0%
   411 ;;BITSFR26             0      0       0      27        0.0%
   412 ;;SFR26                0      0       0      27        0.0%
   413 ;;BITSFR27             0      0       0      28        0.0%
   414 ;;SFR27                0      0       0      28        0.0%
   415 ;;BITSFR28             0      0       0      29        0.0%
   416 ;;SFR28                0      0       0      29        0.0%
   417 ;;BITSFR29             0      0       0      30        0.0%
   418 ;;SFR29                0      0       0      30        0.0%
   419 ;;BITSFR30             0      0       0      31        0.0%
   420 ;;SFR30                0      0       0      31        0.0%
   421 ;;BITSFR31             0      0       0      32        0.0%
   422 ;;SFR31                0      0       0      32        0.0%
   423                           
   424                           	global	_main
   425                           psect	maintext,global,class=CODE,delta=2
   426                           global __pmaintext
   427  0657                     __pmaintext:
   428                           
   429 ;; *************** function _main *****************
   430 ;; Defined at:
   431 ;;		line 241 in file "newmain.c"
   432 ;; Parameters:    Size  Location     Type
   433 ;;		None
   434 ;; Auto vars:     Size  Location     Type
   435 ;;  read            2    4[BANK0 ] int 
   436 ;;  rightpt         2    2[BANK0 ] int 
   437 ;;  leftpt          2    0[BANK0 ] int 
   438 ;; Return value:  Size  Location     Type
   439 ;;                  2  1046[COMMON] int 
   440 ;; Registers used:
   441 ;;		wreg, status,2, status,0, btemp+1, pclath, cstack
   442 ;; Tracked objects:
   443 ;;		On entry : 17F/0
   444 ;;		On exit  : 0/0
   445 ;;		Unchanged: 0/0
   446 ;; Data sizes:     COMMON   BANK0   BANK1   BANK2   BANK3   BANK4   BANK5   BANK6
   447 ;;      Params:         0       0       0       0       0       0       0       0
   448 ;;      Locals:         0       6       0       0       0       0       0       0
   449 ;;      Temps:          2       0       0       0       0       0       0       0
   450 ;;      Totals:         2       6       0       0       0       0       0       0
   451 ;;Total ram usage:        8 bytes
   452 ;; Hardware stack levels required when called:    2
   453 ;; This function calls:
   454 ;;		_doDelay
   455 ;;		_ADCInit
   456 ;;		_readchannel
   457 ;;		_searchTrack
   458 ;;		_controlMotor
   459 ;; This function is called by:
   460 ;;		Startup code after reset
   461 ;; This function uses a non-reentrant model
   462 ;;
   463                           psect	maintext
   464                           	file	"newmain.c"
   465                           	line	241
   466                           	global	__size_of_main
   467  0079                     	__size_of_main	equ	__end_of_main-_main
   468                           	
   469  0657                     _main:	
   470                           	opt	stack 14
   471                           ; Regs used in _main: [wreg+status,2+status,0+btemp+1+pclath+cstack]
   472                           	line	243
   473                           	
   474  0657                     l2511:	
   475                           ;newmain.c: 243: TRISA = 0x00;
   476  0657  0021               	movlb 1	; select bank1
   477  0658  018C               	clrf	(140)^080h	;volatile
   478                           	line	244
   479                           ;newmain.c: 244: TRISB = 0x00;
   480  0659  018D               	clrf	(141)^080h	;volatile
   481                           	line	245
   482                           	
   483  065A                     l2513:	
   484                           ;newmain.c: 245: TRISC = 0b00110000;
   485  065A  3030               	movlw	(030h)
   486  065B  008E               	movwf	(142)^080h	;volatile
   487                           	line	247
   488                           	
   489  065C                     l2515:	
   490                           ;newmain.c: 247: PORTA = 0x00;
   491  065C  0020               	movlb 0	; select bank0
   492  065D  018C               	clrf	(12)	;volatile
   493                           	line	248
   494                           	
   495  065E                     l2517:	
   496                           ;newmain.c: 248: PORTB = 0x00;
   497  065E  018D               	clrf	(13)	;volatile
   498                           	line	249
   499                           	
   500  065F                     l2519:	
   501                           ;newmain.c: 249: PORTC = 0x00;
   502  065F  018E               	clrf	(14)	;volatile
   503                           	line	251
   504                           	
   505  0660                     l2521:	
   506                           ;newmain.c: 251: doDelay();
   507  0660  3186  26D0  3186   	fcall	_doDelay
   508                           	line	253
   509                           	
   510  0663                     l2523:	
   511                           ;newmain.c: 253: ADCInit ();
   512  0663  3185  256A  3186   	fcall	_ADCInit
   513  0666  2E67               	goto	l2525
   514                           	line	256
   515                           ;newmain.c: 255: int leftpt, rightpt, read;
   516                           ;newmain.c: 256: while (1)
   517                           	
   518  0667                     l1047:	
   519                           	line	259
   520                           	
   521  0667                     l2525:	
   522                           ;newmain.c: 257: {
   523                           ;newmain.c: 259: read = readchannel(1);
   524  0667  3001               	movlw	low(01h)
   525  0668  00F0               	movwf	(?_readchannel)
   526  0669  3000               	movlw	high(01h)
   527  066A  00F1               	movwf	((?_readchannel))+1
   528  066B  3185  25DF  3186   	fcall	_readchannel
   529  066E  0871               	movf	(1+(?_readchannel)),w
   530  066F  0020               	movlb 0	; select bank0
   531  0670  01B9               	clrf	(main@read+1)
   532  0671  07B9               	addwf	(main@read+1)
   533  0672  0870               	movf	(0+(?_readchannel)),w
   534  0673  01B8               	clrf	(main@read)
   535  0674  07B8               	addwf	(main@read)
   536                           
   537                           	line	260
   538                           	
   539  0675                     l2527:	
   540                           ;newmain.c: 260: leftpt = (read > 80) ? 1 : 0;
   541  0675  0839               	movf	(main@read+1),w
   542  0676  3A80               	xorlw	80h
   543  0677  00FF               	movwf	btemp+1
   544  0678  3080               	movlw	(high(051h))^80h
   545  0679  027F               	subwf	btemp+1,w
   546  067A  1D03               	skipz
   547  067B  2E7E               	goto	u2555
   548  067C  3051               	movlw	low(051h)
   549  067D  0238               	subwf	(main@read),w
   550  067E                     u2555:
   551                           
   552  067E  3000               	movlw	0
   553  067F  1803               	skipnc
   554  0680  3001               	movlw	1
   555  0681  00FC               	movwf	(??_main+0)+0
   556  0682  01FD               	clrf	(??_main+0)+0+1
   557  0683  087C               	movf	0+(??_main+0)+0,w
   558  0684  0020               	movlb 0	; select bank0
   559  0685  00B4               	movwf	(main@leftpt)
   560  0686  087D               	movf	1+(??_main+0)+0,w
   561  0687  00B5               	movwf	(main@leftpt+1)
   562                           	line	263
   563                           ;newmain.c: 263: read = readchannel(0);
   564  0688  3000               	movlw	low(0)
   565  0689  00F0               	movwf	(?_readchannel)
   566  068A  3000               	movlw	high(0)
   567  068B  00F1               	movwf	((?_readchannel))+1
   568  068C  3185  25DF  3186   	fcall	_readchannel
   569  068F  0871               	movf	(1+(?_readchannel)),w
   570  0690  0020               	movlb 0	; select bank0
   571  0691  01B9               	clrf	(main@read+1)
   572  0692  07B9               	addwf	(main@read+1)
   573  0693  0870               	movf	(0+(?_readchannel)),w
   574  0694  01B8               	clrf	(main@read)
   575  0695  07B8               	addwf	(main@read)
   576                           
   577                           	line	264
   578                           	
   579  0696                     l2529:	
   580                           ;newmain.c: 264: rightpt = (read > 80) ? 1 : 0;
   581  0696  0839               	movf	(main@read+1),w
   582  0697  3A80               	xorlw	80h
   583  0698  00FF               	movwf	btemp+1
   584  0699  3080               	movlw	(high(051h))^80h
   585  069A  027F               	subwf	btemp+1,w
   586  069B  1D03               	skipz
   587  069C  2E9F               	goto	u2565
   588  069D  3051               	movlw	low(051h)
   589  069E  0238               	subwf	(main@read),w
   590  069F                     u2565:
   591                           
   592  069F  3000               	movlw	0
   593  06A0  1803               	skipnc
   594  06A1  3001               	movlw	1
   595  06A2  00FC               	movwf	(??_main+0)+0
   596  06A3  01FD               	clrf	(??_main+0)+0+1
   597  06A4  087C               	movf	0+(??_main+0)+0,w
   598  06A5  0020               	movlb 0	; select bank0
   599  06A6  00B6               	movwf	(main@rightpt)
   600  06A7  087D               	movf	1+(??_main+0)+0,w
   601  06A8  00B7               	movwf	(main@rightpt+1)
   602                           	line	266
   603                           	
   604  06A9                     l2531:	
   605                           ;newmain.c: 266: if((leftpt==0) && (rightpt==0))
   606  06A9  0835               	movf	((main@leftpt+1)),w
   607  06AA  0434               	iorwf	((main@leftpt)),w
   608  06AB  1D03               	skipz
   609  06AC  2EAE               	goto	u2571
   610  06AD  2EAF               	goto	u2570
   611  06AE                     u2571:
   612  06AE  2EB9               	goto	l2537
   613  06AF                     u2570:
   614                           	
   615  06AF                     l2533:	
   616  06AF  0837               	movf	((main@rightpt+1)),w
   617  06B0  0436               	iorwf	((main@rightpt)),w
   618  06B1  1D03               	skipz
   619  06B2  2EB4               	goto	u2581
   620  06B3  2EB5               	goto	u2580
   621  06B4                     u2581:
   622  06B4  2EB9               	goto	l2537
   623  06B5                     u2580:
   624                           	line	268
   625                           	
   626  06B5                     l2535:	
   627                           ;newmain.c: 267: {
   628                           ;newmain.c: 268: searchTrack();
   629  06B5  3186  2615  3186   	fcall	_searchTrack
   630                           	line	269
   631                           ;newmain.c: 269: }
   632  06B8  2E67               	goto	l2525
   633                           	line	270
   634                           	
   635  06B9                     l1048:	
   636                           	line	272
   637                           	
   638  06B9                     l2537:	
   639                           ;newmain.c: 270: else
   640                           ;newmain.c: 271: {
   641                           ;newmain.c: 272: ignore = 0;
   642  06B9  0020               	movlb 0	; select bank0
   643  06BA  01AE               	clrf	(_ignore)
   644  06BB  01AF               	clrf	(_ignore+1)
   645                           	line	273
   646                           	
   647  06BC                     l2539:	
   648                           ;newmain.c: 273: controlMotor(leftpt, rightpt);
   649  06BC  0835               	movf	(main@leftpt+1),w
   650  06BD  01F1               	clrf	(?_controlMotor+1)
   651  06BE  07F1               	addwf	(?_controlMotor+1)
   652  06BF  0834               	movf	(main@leftpt),w
   653  06C0  01F0               	clrf	(?_controlMotor)
   654  06C1  07F0               	addwf	(?_controlMotor)
   655                           
   656  06C2  0837               	movf	(main@rightpt+1),w
   657  06C3  01F3               	clrf	1+(?_controlMotor)+02h
   658  06C4  07F3               	addwf	1+(?_controlMotor)+02h
   659  06C5  0836               	movf	(main@rightpt),w
   660  06C6  01F2               	clrf	0+(?_controlMotor)+02h
   661  06C7  07F2               	addwf	0+(?_controlMotor)+02h
   662                           
   663  06C8  3185  2581  3186   	fcall	_controlMotor
   664  06CB  2E67               	goto	l2525
   665                           	line	274
   666                           	
   667  06CC                     l1049:	
   668  06CC  2E67               	goto	l2525
   669                           	line	275
   670                           	
   671  06CD                     l1050:	
   672                           	line	256
   673  06CD  2E67               	goto	l2525
   674                           	
   675  06CE                     l1051:	
   676                           	line	277
   677                           	
   678  06CE                     l1052:	
   679                           	global	start
   680  06CE  3180  2802         	ljmp	start
   681                           	opt stack 0
   682                           GLOBAL	__end_of_main
   683  06D0                     	__end_of_main:
   684 ;; =============== function _main ends ============
   685                           
   686                           	signat	_main,90
   687                           	global	_doDelay
   688                           psect	text187,local,class=CODE,delta=2
   689                           global __ptext187
   690  06D0                     __ptext187:
   691                           
   692 ;; *************** function _doDelay *****************
   693 ;; Defined at:
   694 ;;		line 140 in file "newmain.c"
   695 ;; Parameters:    Size  Location     Type
   696 ;;		None
   697 ;; Auto vars:     Size  Location     Type
   698 ;;  i               2   10[COMMON] int 
   699 ;;  i               2    8[COMMON] int 
   700 ;;  i               2    6[COMMON] int 
   701 ;;  i               2    4[COMMON] int 
   702 ;; Return value:  Size  Location     Type
   703 ;;		None               void
   704 ;; Registers used:
   705 ;;		wreg, status,2, status,0, btemp+1, pclath, cstack
   706 ;; Tracked objects:
   707 ;;		On entry : 0/0
   708 ;;		On exit  : 0/0
   709 ;;		Unchanged: 0/0
   710 ;; Data sizes:     COMMON   BANK0   BANK1   BANK2   BANK3   BANK4   BANK5   BANK6
   711 ;;      Params:         0       0       0       0       0       0       0       0
   712 ;;      Locals:         8       0       0       0       0       0       0       0
   713 ;;      Temps:          0       0       0       0       0       0       0       0
   714 ;;      Totals:         8       0       0       0       0       0       0       0
   715 ;;Total ram usage:        8 bytes
   716 ;; Hardware stack levels used:    1
   717 ;; Hardware stack levels required when called:    1
   718 ;; This function calls:
   719 ;;		__delay_ms
   720 ;; This function is called by:
   721 ;;		_main
   722 ;; This function uses a non-reentrant model
   723 ;;
   724                           psect	text187
   725                           	file	"newmain.c"
   726                           	line	140
   727                           	global	__size_of_doDelay
   728  0130                     	__size_of_doDelay	equ	__end_of_doDelay-_doDelay
   729                           	
   730  06D0                     _doDelay:	
   731                           	opt	stack 14
   732                           ; Regs used in _doDelay: [wreg+status,2+status,0+btemp+1+pclath+cstack]
   733                           	line	141
   734                           	
   735  06D0                     l2433:	
   736                           ;newmain.c: 141: RC2 = 0;
   737  06D0  0020               	movlb 0	; select bank0
   738  06D1  110E               	bcf	(114/8),(114)&7
   739                           	line	142
   740                           	
   741  06D2                     l2435:	
   742                           ;newmain.c: 142: _delay_ms(500);
   743  06D2  30F4               	movlw	low(01F4h)
   744  06D3  00F0               	movwf	(?__delay_ms)
   745  06D4  3001               	movlw	high(01F4h)
   746  06D5  00F1               	movwf	((?__delay_ms))+1
   747  06D6  3185  25AF  3186   	fcall	__delay_ms
   748                           	line	143
   749                           	
   750  06D9                     l2437:	
   751                           ;newmain.c: 143: RC2 = 1;
   752  06D9  0020               	movlb 0	; select bank0
   753  06DA  150E               	bsf	(114/8),(114)&7
   754                           	line	144
   755                           ;newmain.c: 144: _delay_ms(500);
   756  06DB  30F4               	movlw	low(01F4h)
   757  06DC  00F0               	movwf	(?__delay_ms)
   758  06DD  3001               	movlw	high(01F4h)
   759  06DE  00F1               	movwf	((?__delay_ms))+1
   760  06DF  3185  25AF  3186   	fcall	__delay_ms
   761                           	line	146
   762                           	
   763  06E2                     l2439:	
   764                           ;newmain.c: 146: RC2 = 0;
   765  06E2  0020               	movlb 0	; select bank0
   766  06E3  110E               	bcf	(114/8),(114)&7
   767                           	line	147
   768                           ;newmain.c: 147: _delay_ms(500);
   769  06E4  30F4               	movlw	low(01F4h)
   770  06E5  00F0               	movwf	(?__delay_ms)
   771  06E6  3001               	movlw	high(01F4h)
   772  06E7  00F1               	movwf	((?__delay_ms))+1
   773  06E8  3185  25AF  3186   	fcall	__delay_ms
   774                           	line	148
   775                           	
   776  06EB                     l2441:	
   777                           ;newmain.c: 148: RC2 = 1;
   778  06EB  0020               	movlb 0	; select bank0
   779  06EC  150E               	bsf	(114/8),(114)&7
   780                           	line	149
   781                           ;newmain.c: 149: _delay_ms(500);
   782  06ED  30F4               	movlw	low(01F4h)
   783  06EE  00F0               	movwf	(?__delay_ms)
   784  06EF  3001               	movlw	high(01F4h)
   785  06F0  00F1               	movwf	((?__delay_ms))+1
   786  06F1  3185  25AF  3186   	fcall	__delay_ms
   787                           	line	151
   788                           	
   789  06F4                     l2443:	
   790                           ;newmain.c: 151: RC2 = 0;
   791  06F4  0020               	movlb 0	; select bank0
   792  06F5  110E               	bcf	(114/8),(114)&7
   793                           	line	152
   794                           ;newmain.c: 152: _delay_ms(500);
   795  06F6  30F4               	movlw	low(01F4h)
   796  06F7  00F0               	movwf	(?__delay_ms)
   797  06F8  3001               	movlw	high(01F4h)
   798  06F9  00F1               	movwf	((?__delay_ms))+1
   799  06FA  3185  25AF  3186   	fcall	__delay_ms
   800                           	line	153
   801                           	
   802  06FD                     l2445:	
   803                           ;newmain.c: 153: RC2 = 1;
   804  06FD  0020               	movlb 0	; select bank0
   805  06FE  150E               	bsf	(114/8),(114)&7
   806                           	line	154
   807                           ;newmain.c: 154: _delay_ms(500);
   808  06FF  30F4               	movlw	low(01F4h)
   809  0700  00F0               	movwf	(?__delay_ms)
   810  0701  3001               	movlw	high(01F4h)
   811  0702  00F1               	movwf	((?__delay_ms))+1
   812  0703  3185  25AF  3186   	fcall	__delay_ms
   813                           	line	155
   814                           	
   815  0706                     l2447:	
   816                           ;newmain.c: 155: RC2 = 0;
   817  0706  0020               	movlb 0	; select bank0
   818  0707  110E               	bcf	(114/8),(114)&7
   819                           	line	157
   820                           ;newmain.c: 157: _delay_ms(1000);
   821  0708  30E8               	movlw	low(03E8h)
   822  0709  00F0               	movwf	(?__delay_ms)
   823  070A  3003               	movlw	high(03E8h)
   824  070B  00F1               	movwf	((?__delay_ms))+1
   825  070C  3185  25AF  3186   	fcall	__delay_ms
   826                           	line	161
   827                           	
   828  070F                     l2449:	
   829                           ;newmain.c: 161: for (int i = 0; i < 80; i++)
   830  070F  01F4               	clrf	(doDelay@i)
   831  0710  01F5               	clrf	(doDelay@i+1)
   832                           	
   833  0711                     l2451:	
   834  0711  0875               	movf	(doDelay@i+1),w
   835  0712  3A80               	xorlw	80h
   836  0713  00FF               	movwf	btemp+1
   837  0714  3080               	movlw	(high(050h))^80h
   838  0715  027F               	subwf	btemp+1,w
   839  0716  1D03               	skipz
   840  0717  2F1A               	goto	u2475
   841  0718  3050               	movlw	low(050h)
   842  0719  0274               	subwf	(doDelay@i),w
   843  071A                     u2475:
   844                           
   845  071A  1C03               	skipc
   846  071B  2F1D               	goto	u2471
   847  071C  2F1E               	goto	u2470
   848  071D                     u2471:
   849  071D  2F20               	goto	l1021
   850  071E                     u2470:
   851  071E  2F44               	goto	l2463
   852                           	
   853  071F                     l2453:	
   854  071F  2F44               	goto	l2463
   855                           	line	162
   856                           	
   857  0720                     l1021:	
   858                           	line	163
   859                           ;newmain.c: 162: {
   860                           ;newmain.c: 163: RC3 = 1;
   861  0720  0020               	movlb 0	; select bank0
   862  0721  158E               	bsf	(115/8),(115)&7
   863                           	line	164
   864                           	
   865  0722                     l2455:	
   866                           ;newmain.c: 164: _delay_ms(4);
   867  0722  3004               	movlw	low(04h)
   868  0723  00F0               	movwf	(?__delay_ms)
   869  0724  3000               	movlw	high(04h)
   870  0725  00F1               	movwf	((?__delay_ms))+1
   871  0726  3185  25AF  3186   	fcall	__delay_ms
   872                           	line	165
   873                           	
   874  0729                     l2457:	
   875                           ;newmain.c: 165: RC3 = 0;
   876  0729  0020               	movlb 0	; select bank0
   877  072A  118E               	bcf	(115/8),(115)&7
   878                           	line	166
   879                           ;newmain.c: 166: _delay_ms(4);
   880  072B  3004               	movlw	low(04h)
   881  072C  00F0               	movwf	(?__delay_ms)
   882  072D  3000               	movlw	high(04h)
   883  072E  00F1               	movwf	((?__delay_ms))+1
   884  072F  3185  25AF  3186   	fcall	__delay_ms
   885                           	line	161
   886                           	
   887  0732                     l2459:	
   888  0732  3001               	movlw	low(01h)
   889  0733  07F4               	addwf	(doDelay@i),f
   890  0734  3000               	movlw	high(01h)
   891  0735  3DF5               	addwfc	(doDelay@i+1),f
   892                           	
   893  0736                     l2461:	
   894  0736  0875               	movf	(doDelay@i+1),w
   895  0737  3A80               	xorlw	80h
   896  0738  00FF               	movwf	btemp+1
   897  0739  3080               	movlw	(high(050h))^80h
   898  073A  027F               	subwf	btemp+1,w
   899  073B  1D03               	skipz
   900  073C  2F3F               	goto	u2485
   901  073D  3050               	movlw	low(050h)
   902  073E  0274               	subwf	(doDelay@i),w
   903  073F                     u2485:
   904                           
   905  073F  1C03               	skipc
   906  0740  2F42               	goto	u2481
   907  0741  2F43               	goto	u2480
   908  0742                     u2481:
   909  0742  2F20               	goto	l1021
   910  0743                     u2480:
   911  0743  2F44               	goto	l2463
   912                           	
   913  0744                     l1022:	
   914                           	line	168
   915                           	
   916  0744                     l2463:	
   917                           ;newmain.c: 167: }
   918                           ;newmain.c: 168: _delay_ms(360);
   919  0744  3068               	movlw	low(0168h)
   920  0745  00F0               	movwf	(?__delay_ms)
   921  0746  3001               	movlw	high(0168h)
   922  0747  00F1               	movwf	((?__delay_ms))+1
   923  0748  3185  25AF  3186   	fcall	__delay_ms
   924                           	line	171
   925                           	
   926  074B                     l2465:	
   927                           ;newmain.c: 171: for (int i = 0; i < 80; i++)
   928  074B  01F6               	clrf	(doDelay@i_1628)
   929  074C  01F7               	clrf	(doDelay@i_1628+1)
   930                           	
   931  074D                     l2467:	
   932  074D  0877               	movf	(doDelay@i_1628+1),w
   933  074E  3A80               	xorlw	80h
   934  074F  00FF               	movwf	btemp+1
   935  0750  3080               	movlw	(high(050h))^80h
   936  0751  027F               	subwf	btemp+1,w
   937  0752  1D03               	skipz
   938  0753  2F56               	goto	u2495
   939  0754  3050               	movlw	low(050h)
   940  0755  0276               	subwf	(doDelay@i_1628),w
   941  0756                     u2495:
   942                           
   943  0756  1C03               	skipc
   944  0757  2F59               	goto	u2491
   945  0758  2F5A               	goto	u2490
   946  0759                     u2491:
   947  0759  2F5C               	goto	l1023
   948  075A                     u2490:
   949  075A  2F80               	goto	l2479
   950                           	
   951  075B                     l2469:	
   952  075B  2F80               	goto	l2479
   953                           	line	172
   954                           	
   955  075C                     l1023:	
   956                           	line	173
   957                           ;newmain.c: 172: {
   958                           ;newmain.c: 173: RC3 = 1;
   959  075C  0020               	movlb 0	; select bank0
   960  075D  158E               	bsf	(115/8),(115)&7
   961                           	line	174
   962                           	
   963  075E                     l2471:	
   964                           ;newmain.c: 174: _delay_ms(4);
   965  075E  3004               	movlw	low(04h)
   966  075F  00F0               	movwf	(?__delay_ms)
   967  0760  3000               	movlw	high(04h)
   968  0761  00F1               	movwf	((?__delay_ms))+1
   969  0762  3185  25AF  3186   	fcall	__delay_ms
   970                           	line	175
   971                           	
   972  0765                     l2473:	
   973                           ;newmain.c: 175: RC3 = 0;
   974  0765  0020               	movlb 0	; select bank0
   975  0766  118E               	bcf	(115/8),(115)&7
   976                           	line	176
   977                           ;newmain.c: 176: _delay_ms(4);
   978  0767  3004               	movlw	low(04h)
   979  0768  00F0               	movwf	(?__delay_ms)
   980  0769  3000               	movlw	high(04h)
   981  076A  00F1               	movwf	((?__delay_ms))+1
   982  076B  3185  25AF  3186   	fcall	__delay_ms
   983                           	line	171
   984                           	
   985  076E                     l2475:	
   986  076E  3001               	movlw	low(01h)
   987  076F  07F6               	addwf	(doDelay@i_1628),f
   988  0770  3000               	movlw	high(01h)
   989  0771  3DF7               	addwfc	(doDelay@i_1628+1),f
   990                           	
   991  0772                     l2477:	
   992  0772  0877               	movf	(doDelay@i_1628+1),w
   993  0773  3A80               	xorlw	80h
   994  0774  00FF               	movwf	btemp+1
   995  0775  3080               	movlw	(high(050h))^80h
   996  0776  027F               	subwf	btemp+1,w
   997  0777  1D03               	skipz
   998  0778  2F7B               	goto	u2505
   999  0779  3050               	movlw	low(050h)
  1000  077A  0276               	subwf	(doDelay@i_1628),w
  1001  077B                     u2505:
  1002                           
  1003  077B  1C03               	skipc
  1004  077C  2F7E               	goto	u2501
  1005  077D  2F7F               	goto	u2500
  1006  077E                     u2501:
  1007  077E  2F5C               	goto	l1023
  1008  077F                     u2500:
  1009  077F  2F80               	goto	l2479
  1010                           	
  1011  0780                     l1024:	
  1012                           	line	178
  1013                           	
  1014  0780                     l2479:	
  1015                           ;newmain.c: 177: }
  1016                           ;newmain.c: 178: _delay_ms(360);
  1017  0780  3068               	movlw	low(0168h)
  1018  0781  00F0               	movwf	(?__delay_ms)
  1019  0782  3001               	movlw	high(0168h)
  1020  0783  00F1               	movwf	((?__delay_ms))+1
  1021  0784  3185  25AF  3186   	fcall	__delay_ms
  1022                           	line	180
  1023                           	
  1024  0787                     l2481:	
  1025                           ;newmain.c: 180: for (int i = 0; i < 80; i++)
  1026  0787  01F8               	clrf	(doDelay@i_1629)
  1027  0788  01F9               	clrf	(doDelay@i_1629+1)
  1028                           	
  1029  0789                     l2483:	
  1030  0789  0879               	movf	(doDelay@i_1629+1),w
  1031  078A  3A80               	xorlw	80h
  1032  078B  00FF               	movwf	btemp+1
  1033  078C  3080               	movlw	(high(050h))^80h
  1034  078D  027F               	subwf	btemp+1,w
  1035  078E  1D03               	skipz
  1036  078F  2F92               	goto	u2515
  1037  0790  3050               	movlw	low(050h)
  1038  0791  0278               	subwf	(doDelay@i_1629),w
  1039  0792                     u2515:
  1040                           
  1041  0792  1C03               	skipc
  1042  0793  2F95               	goto	u2511
  1043  0794  2F96               	goto	u2510
  1044  0795                     u2511:
  1045  0795  2F98               	goto	l1025
  1046  0796                     u2510:
  1047  0796  2FBC               	goto	l2495
  1048                           	
  1049  0797                     l2485:	
  1050  0797  2FBC               	goto	l2495
  1051                           	line	181
  1052                           	
  1053  0798                     l1025:	
  1054                           	line	182
  1055                           ;newmain.c: 181: {
  1056                           ;newmain.c: 182: RC3 = 1;
  1057  0798  0020               	movlb 0	; select bank0
  1058  0799  158E               	bsf	(115/8),(115)&7
  1059                           	line	183
  1060                           	
  1061  079A                     l2487:	
  1062                           ;newmain.c: 183: _delay_ms(4);
  1063  079A  3004               	movlw	low(04h)
  1064  079B  00F0               	movwf	(?__delay_ms)
  1065  079C  3000               	movlw	high(04h)
  1066  079D  00F1               	movwf	((?__delay_ms))+1
  1067  079E  3185  25AF  3186   	fcall	__delay_ms
  1068                           	line	184
  1069                           	
  1070  07A1                     l2489:	
  1071                           ;newmain.c: 184: RC3 = 0;
  1072  07A1  0020               	movlb 0	; select bank0
  1073  07A2  118E               	bcf	(115/8),(115)&7
  1074                           	line	185
  1075                           ;newmain.c: 185: _delay_ms(4);
  1076  07A3  3004               	movlw	low(04h)
  1077  07A4  00F0               	movwf	(?__delay_ms)
  1078  07A5  3000               	movlw	high(04h)
  1079  07A6  00F1               	movwf	((?__delay_ms))+1
  1080  07A7  3185  25AF  3186   	fcall	__delay_ms
  1081                           	line	180
  1082                           	
  1083  07AA                     l2491:	
  1084  07AA  3001               	movlw	low(01h)
  1085  07AB  07F8               	addwf	(doDelay@i_1629),f
  1086  07AC  3000               	movlw	high(01h)
  1087  07AD  3DF9               	addwfc	(doDelay@i_1629+1),f
  1088                           	
  1089  07AE                     l2493:	
  1090  07AE  0879               	movf	(doDelay@i_1629+1),w
  1091  07AF  3A80               	xorlw	80h
  1092  07B0  00FF               	movwf	btemp+1
  1093  07B1  3080               	movlw	(high(050h))^80h
  1094  07B2  027F               	subwf	btemp+1,w
  1095  07B3  1D03               	skipz
  1096  07B4  2FB7               	goto	u2525
  1097  07B5  3050               	movlw	low(050h)
  1098  07B6  0278               	subwf	(doDelay@i_1629),w
  1099  07B7                     u2525:
  1100                           
  1101  07B7  1C03               	skipc
  1102  07B8  2FBA               	goto	u2521
  1103  07B9  2FBB               	goto	u2520
  1104  07BA                     u2521:
  1105  07BA  2F98               	goto	l1025
  1106  07BB                     u2520:
  1107  07BB  2FBC               	goto	l2495
  1108                           	
  1109  07BC                     l1026:	
  1110                           	line	187
  1111                           	
  1112  07BC                     l2495:	
  1113                           ;newmain.c: 186: }
  1114                           ;newmain.c: 187: _delay_ms(360);
  1115  07BC  3068               	movlw	low(0168h)
  1116  07BD  00F0               	movwf	(?__delay_ms)
  1117  07BE  3001               	movlw	high(0168h)
  1118  07BF  00F1               	movwf	((?__delay_ms))+1
  1119  07C0  3185  25AF  3186   	fcall	__delay_ms
  1120                           	line	189
  1121                           ;newmain.c: 189: _delay_ms(200);
  1122  07C3  30C8               	movlw	low(0C8h)
  1123  07C4  00F0               	movwf	(?__delay_ms)
  1124  07C5  3000               	movlw	high(0C8h)
  1125  07C6  00F1               	movwf	((?__delay_ms))+1
  1126  07C7  3185  25AF  3186   	fcall	__delay_ms
  1127                           	line	191
  1128                           	
  1129  07CA                     l2497:	
  1130                           ;newmain.c: 191: for (int i = 0; i < 400; i++)
  1131  07CA  01FA               	clrf	(doDelay@i_1630)
  1132  07CB  01FB               	clrf	(doDelay@i_1630+1)
  1133                           	
  1134  07CC                     l2499:	
  1135  07CC  087B               	movf	(doDelay@i_1630+1),w
  1136  07CD  3A80               	xorlw	80h
  1137  07CE  00FF               	movwf	btemp+1
  1138  07CF  3081               	movlw	(high(0190h))^80h
  1139  07D0  027F               	subwf	btemp+1,w
  1140  07D1  1D03               	skipz
  1141  07D2  2FD5               	goto	u2535
  1142  07D3  3090               	movlw	low(0190h)
  1143  07D4  027A               	subwf	(doDelay@i_1630),w
  1144  07D5                     u2535:
  1145                           
  1146  07D5  1C03               	skipc
  1147  07D6  2FD8               	goto	u2531
  1148  07D7  2FD9               	goto	u2530
  1149  07D8                     u2531:
  1150  07D8  2FDB               	goto	l1027
  1151  07D9                     u2530:
  1152  07D9  2FFF               	goto	l1029
  1153                           	
  1154  07DA                     l2501:	
  1155  07DA  2FFF               	goto	l1029
  1156                           	line	192
  1157                           	
  1158  07DB                     l1027:	
  1159                           	line	193
  1160                           ;newmain.c: 192: {
  1161                           ;newmain.c: 193: RC3 = 1;
  1162  07DB  0020               	movlb 0	; select bank0
  1163  07DC  158E               	bsf	(115/8),(115)&7
  1164                           	line	194
  1165                           	
  1166  07DD                     l2503:	
  1167                           ;newmain.c: 194: _delay_ms(1);
  1168  07DD  3001               	movlw	low(01h)
  1169  07DE  00F0               	movwf	(?__delay_ms)
  1170  07DF  3000               	movlw	high(01h)
  1171  07E0  00F1               	movwf	((?__delay_ms))+1
  1172  07E1  3185  25AF  3186   	fcall	__delay_ms
  1173                           	line	195
  1174                           	
  1175  07E4                     l2505:	
  1176                           ;newmain.c: 195: RC3 = 0;
  1177  07E4  0020               	movlb 0	; select bank0
  1178  07E5  118E               	bcf	(115/8),(115)&7
  1179                           	line	196
  1180                           ;newmain.c: 196: _delay_ms(1);
  1181  07E6  3001               	movlw	low(01h)
  1182  07E7  00F0               	movwf	(?__delay_ms)
  1183  07E8  3000               	movlw	high(01h)
  1184  07E9  00F1               	movwf	((?__delay_ms))+1
  1185  07EA  3185  25AF  3186   	fcall	__delay_ms
  1186                           	line	191
  1187                           	
  1188  07ED                     l2507:	
  1189  07ED  3001               	movlw	low(01h)
  1190  07EE  07FA               	addwf	(doDelay@i_1630),f
  1191  07EF  3000               	movlw	high(01h)
  1192  07F0  3DFB               	addwfc	(doDelay@i_1630+1),f
  1193                           	
  1194  07F1                     l2509:	
  1195  07F1  087B               	movf	(doDelay@i_1630+1),w
  1196  07F2  3A80               	xorlw	80h
  1197  07F3  00FF               	movwf	btemp+1
  1198  07F4  3081               	movlw	(high(0190h))^80h
  1199  07F5  027F               	subwf	btemp+1,w
  1200  07F6  1D03               	skipz
  1201  07F7  2FFA               	goto	u2545
  1202  07F8  3090               	movlw	low(0190h)
  1203  07F9  027A               	subwf	(doDelay@i_1630),w
  1204  07FA                     u2545:
  1205                           
  1206  07FA  1C03               	skipc
  1207  07FB  2FFD               	goto	u2541
  1208  07FC  2FFE               	goto	u2540
  1209  07FD                     u2541:
  1210  07FD  2FDB               	goto	l1027
  1211  07FE                     u2540:
  1212  07FE  2FFF               	goto	l1029
  1213                           	
  1214  07FF                     l1028:	
  1215                           	line	202
  1216                           	
  1217  07FF                     l1029:	
  1218  07FF  0008               	return
  1219                           	opt stack 0
  1220                           GLOBAL	__end_of_doDelay
  1221  0800                     	__end_of_doDelay:
  1222 ;; =============== function _doDelay ends ============
  1223                           
  1224                           	signat	_doDelay,88
  1225                           	global	_searchTrack
  1226                           psect	text188,local,class=CODE,delta=2
  1227                           global __ptext188
  1228  0615                     __ptext188:
  1229                           
  1230 ;; *************** function _searchTrack *****************
  1231 ;; Defined at:
  1232 ;;		line 112 in file "newmain.c"
  1233 ;; Parameters:    Size  Location     Type
  1234 ;;		None
  1235 ;; Auto vars:     Size  Location     Type
  1236 ;;		None
  1237 ;; Return value:  Size  Location     Type
  1238 ;;                  2  1012[COMMON] int 
  1239 ;; Registers used:
  1240 ;;		wreg, status,2, status,0, pclath, cstack
  1241 ;; Tracked objects:
  1242 ;;		On entry : 0/0
  1243 ;;		On exit  : 0/0
  1244 ;;		Unchanged: 0/0
  1245 ;; Data sizes:     COMMON   BANK0   BANK1   BANK2   BANK3   BANK4   BANK5   BANK6
  1246 ;;      Params:         0       0       0       0       0       0       0       0
  1247 ;;      Locals:         0       0       0       0       0       0       0       0
  1248 ;;      Temps:          0       0       0       0       0       0       0       0
  1249 ;;      Totals:         0       0       0       0       0       0       0       0
  1250 ;;Total ram usage:        0 bytes
  1251 ;; Hardware stack levels used:    1
  1252 ;; Hardware stack levels required when called:    1
  1253 ;; This function calls:
  1254 ;;		_controlMotor
  1255 ;; This function is called by:
  1256 ;;		_main
  1257 ;; This function uses a non-reentrant model
  1258 ;;
  1259                           psect	text188
  1260                           	file	"newmain.c"
  1261                           	line	112
  1262                           	global	__size_of_searchTrack
  1263  0042                     	__size_of_searchTrack	equ	__end_of_searchTrack-_searchTrack
  1264                           	
  1265  0615                     _searchTrack:	
  1266                           	opt	stack 14
  1267                           ; Regs used in _searchTrack: [wreg+status,2+status,0+pclath+cstack]
  1268                           	line	113
  1269                           	
  1270  0615                     l2421:	
  1271                           ;newmain.c: 113: ignore = 1;
  1272  0615  3001               	movlw	low(01h)
  1273  0616  0020               	movlb 0	; select bank0
  1274  0617  00AE               	movwf	(_ignore)
  1275  0618  3000               	movlw	high(01h)
  1276  0619  00AF               	movwf	((_ignore))+1
  1277                           	line	114
  1278                           ;newmain.c: 114: if (lastMotor == 2)
  1279  061A  3002               	movlw	02h
  1280  061B  0630               	xorwf	(_lastMotor),w
  1281  061C  0431               	iorwf	(_lastMotor+1),w
  1282  061D  1D03               	skipz
  1283  061E  2E20               	goto	u2441
  1284  061F  2E21               	goto	u2440
  1285  0620                     u2441:
  1286  0620  2E2D               	goto	l2425
  1287  0621                     u2440:
  1288                           	line	116
  1289                           	
  1290  0621                     l2423:	
  1291                           ;newmain.c: 115: {
  1292                           ;newmain.c: 116: controlMotor(1, 0);
  1293  0621  3001               	movlw	low(01h)
  1294  0622  00F0               	movwf	(?_controlMotor)
  1295  0623  3000               	movlw	high(01h)
  1296  0624  00F1               	movwf	((?_controlMotor))+1
  1297  0625  3000               	movlw	low(0)
  1298  0626  00F2               	movwf	0+(?_controlMotor)+02h
  1299  0627  3000               	movlw	high(0)
  1300  0628  00F3               	movwf	(0+(?_controlMotor)+02h)+1
  1301  0629  3185  2581  3186   	fcall	_controlMotor
  1302                           	line	117
  1303                           ;newmain.c: 117: }
  1304  062C  2E56               	goto	l1018
  1305                           	line	118
  1306                           	
  1307  062D                     l1013:	
  1308                           	
  1309  062D                     l2425:	
  1310                           ;newmain.c: 118: else if (lastMotor == 1)
  1311  062D  3001               	movlw	01h
  1312  062E  0020               	movlb 0	; select bank0
  1313  062F  0630               	xorwf	(_lastMotor),w
  1314  0630  0431               	iorwf	(_lastMotor+1),w
  1315  0631  1D03               	skipz
  1316  0632  2E34               	goto	u2451
  1317  0633  2E35               	goto	u2450
  1318  0634                     u2451:
  1319  0634  2E41               	goto	l2429
  1320  0635                     u2450:
  1321                           	line	120
  1322                           	
  1323  0635                     l2427:	
  1324                           ;newmain.c: 119: {
  1325                           ;newmain.c: 120: controlMotor(0, 1);
  1326  0635  3000               	movlw	low(0)
  1327  0636  00F0               	movwf	(?_controlMotor)
  1328  0637  3000               	movlw	high(0)
  1329  0638  00F1               	movwf	((?_controlMotor))+1
  1330  0639  3001               	movlw	low(01h)
  1331  063A  00F2               	movwf	0+(?_controlMotor)+02h
  1332  063B  3000               	movlw	high(01h)
  1333  063C  00F3               	movwf	(0+(?_controlMotor)+02h)+1
  1334  063D  3185  2581  3186   	fcall	_controlMotor
  1335                           	line	121
  1336                           ;newmain.c: 121: }
  1337  0640  2E56               	goto	l1018
  1338                           	line	122
  1339                           	
  1340  0641                     l1015:	
  1341                           	
  1342  0641                     l2429:	
  1343                           ;newmain.c: 122: else if (lastMotor == 0)
  1344  0641  0020               	movlb 0	; select bank0
  1345  0642  0831               	movf	((_lastMotor+1)),w
  1346  0643  0430               	iorwf	((_lastMotor)),w
  1347  0644  1D03               	skipz
  1348  0645  2E47               	goto	u2461
  1349  0646  2E48               	goto	u2460
  1350  0647                     u2461:
  1351  0647  2E56               	goto	l1018
  1352  0648                     u2460:
  1353                           	line	124
  1354                           	
  1355  0648                     l2431:	
  1356                           ;newmain.c: 123: {
  1357                           ;newmain.c: 124: controlMotor(1,1);
  1358  0648  3001               	movlw	low(01h)
  1359  0649  00F0               	movwf	(?_controlMotor)
  1360  064A  3000               	movlw	high(01h)
  1361  064B  00F1               	movwf	((?_controlMotor))+1
  1362  064C  3001               	movlw	low(01h)
  1363  064D  00F2               	movwf	0+(?_controlMotor)+02h
  1364  064E  3000               	movlw	high(01h)
  1365  064F  00F3               	movwf	(0+(?_controlMotor)+02h)+1
  1366  0650  3185  2581  3186   	fcall	_controlMotor
  1367  0653  2E56               	goto	l1018
  1368                           	line	125
  1369                           	
  1370  0654                     l1017:	
  1371  0654  2E56               	goto	l1018
  1372                           	line	126
  1373                           	
  1374  0655                     l1016:	
  1375  0655  2E56               	goto	l1018
  1376                           	
  1377  0656                     l1014:	
  1378                           	
  1379  0656                     l1018:	
  1380  0656  0008               	return
  1381                           	opt stack 0
  1382                           GLOBAL	__end_of_searchTrack
  1383  0657                     	__end_of_searchTrack:
  1384 ;; =============== function _searchTrack ends ============
  1385                           
  1386                           	signat	_searchTrack,90
  1387                           	global	__delay_ms
  1388                           psect	text189,local,class=CODE,delta=2
  1389                           global __ptext189
  1390  05AF                     __ptext189:
  1391                           
  1392 ;; *************** function __delay_ms *****************
  1393 ;; Defined at:
  1394 ;;		line 54 in file "newmain.c"
  1395 ;; Parameters:    Size  Location     Type
  1396 ;;  ms              2    0[COMMON] unsigned int 
  1397 ;; Auto vars:     Size  Location     Type
  1398 ;;  i               2    2[COMMON] int 
  1399 ;; Return value:  Size  Location     Type
  1400 ;;		None               void
  1401 ;; Registers used:
  1402 ;;		wreg, status,2, status,0, btemp+1
  1403 ;; Tracked objects:
  1404 ;;		On entry : 0/0
  1405 ;;		On exit  : 0/0
  1406 ;;		Unchanged: 0/0
  1407 ;; Data sizes:     COMMON   BANK0   BANK1   BANK2   BANK3   BANK4   BANK5   BANK6
  1408 ;;      Params:         2       0       0       0       0       0       0       0
  1409 ;;      Locals:         2       0       0       0       0       0       0       0
  1410 ;;      Temps:          0       0       0       0       0       0       0       0
  1411 ;;      Totals:         4       0       0       0       0       0       0       0
  1412 ;;Total ram usage:        4 bytes
  1413 ;; Hardware stack levels used:    1
  1414 ;; This function calls:
  1415 ;;		Nothing
  1416 ;; This function is called by:
  1417 ;;		_doDelay
  1418 ;; This function uses a non-reentrant model
  1419 ;;
  1420                           psect	text189
  1421                           	file	"newmain.c"
  1422                           	line	54
  1423                           	global	__size_of__delay_ms
  1424  0030                     	__size_of__delay_ms	equ	__end_of__delay_ms-__delay_ms
  1425                           	
  1426  05AF                     __delay_ms:	
  1427                           	opt	stack 14
  1428                           ; Regs used in __delay_ms: [wreg+status,2+status,0+btemp+1]
  1429                           	line	55
  1430                           ;newmain.c: 55: do
  1431                           	
  1432  05AF                     l997:	
  1433                           	line	57
  1434                           	
  1435  05AF                     l2409:	
  1436                           ;newmain.c: 56: {
  1437                           ;newmain.c: 57: for (int i = 0; i < 5; i++)
  1438  05AF  01F2               	clrf	(__delay_ms@i)
  1439  05B0  01F3               	clrf	(__delay_ms@i+1)
  1440                           	
  1441  05B1                     l2411:	
  1442  05B1  0873               	movf	(__delay_ms@i+1),w
  1443  05B2  3A80               	xorlw	80h
  1444  05B3  00FF               	movwf	btemp+1
  1445  05B4  3080               	movlw	(high(05h))^80h
  1446  05B5  027F               	subwf	btemp+1,w
  1447  05B6  1D03               	skipz
  1448  05B7  2DBA               	goto	u2415
  1449  05B8  3005               	movlw	low(05h)
  1450  05B9  0272               	subwf	(__delay_ms@i),w
  1451  05BA                     u2415:
  1452                           
  1453  05BA  1C03               	skipc
  1454  05BB  2DBD               	goto	u2411
  1455  05BC  2DBE               	goto	u2410
  1456  05BD                     u2411:
  1457  05BD  2DC0               	goto	l998
  1458  05BE                     u2410:
  1459  05BE  2DD3               	goto	l2419
  1460                           	
  1461  05BF                     l2413:	
  1462  05BF  2DD3               	goto	l2419
  1463                           	line	58
  1464                           	
  1465  05C0                     l998:	
  1466                           	line	59
  1467                           ;newmain.c: 58: {
  1468                           ;newmain.c: 59: _nop();
  1469  05C0  0000               	nop
  1470                           	line	57
  1471                           	
  1472  05C1                     l2415:	
  1473  05C1  3001               	movlw	low(01h)
  1474  05C2  07F2               	addwf	(__delay_ms@i),f
  1475  05C3  3000               	movlw	high(01h)
  1476  05C4  3DF3               	addwfc	(__delay_ms@i+1),f
  1477                           	
  1478  05C5                     l2417:	
  1479  05C5  0873               	movf	(__delay_ms@i+1),w
  1480  05C6  3A80               	xorlw	80h
  1481  05C7  00FF               	movwf	btemp+1
  1482  05C8  3080               	movlw	(high(05h))^80h
  1483  05C9  027F               	subwf	btemp+1,w
  1484  05CA  1D03               	skipz
  1485  05CB  2DCE               	goto	u2425
  1486  05CC  3005               	movlw	low(05h)
  1487  05CD  0272               	subwf	(__delay_ms@i),w
  1488  05CE                     u2425:
  1489                           
  1490  05CE  1C03               	skipc
  1491  05CF  2DD1               	goto	u2421
  1492  05D0  2DD2               	goto	u2420
  1493  05D1                     u2421:
  1494  05D1  2DC0               	goto	l998
  1495  05D2                     u2420:
  1496  05D2  2DD3               	goto	l2419
  1497                           	
  1498  05D3                     l999:	
  1499                           	line	61
  1500                           	
  1501  05D3                     l2419:	
  1502                           ;newmain.c: 60: }
  1503                           ;newmain.c: 61: } while(--ms);
  1504  05D3  3001               	movlw	low(01h)
  1505  05D4  02F0               	subwf	(__delay_ms@ms),f
  1506  05D5  3000               	movlw	high(01h)
  1507  05D6  3BF1               	subwfb	(__delay_ms@ms+1),f
  1508  05D7  0871               	movf	(((__delay_ms@ms+1))),w
  1509  05D8  0470               	iorwf	(((__delay_ms@ms))),w
  1510  05D9  1D03               	skipz
  1511  05DA  2DDC               	goto	u2431
  1512  05DB  2DDD               	goto	u2430
  1513  05DC                     u2431:
  1514  05DC  2DAF               	goto	l997
  1515  05DD                     u2430:
  1516  05DD  2DDE               	goto	l1001
  1517                           	
  1518  05DE                     l1000:	
  1519                           	line	62
  1520                           	
  1521  05DE                     l1001:	
  1522  05DE  0008               	return
  1523                           	opt stack 0
  1524                           GLOBAL	__end_of__delay_ms
  1525  05DF                     	__end_of__delay_ms:
  1526 ;; =============== function __delay_ms ends ============
  1527                           
  1528                           	signat	__delay_ms,4216
  1529                           	global	_readchannel
  1530                           psect	text190,local,class=CODE,delta=2
  1531                           global __ptext190
  1532  05DF                     __ptext190:
  1533                           
  1534 ;; *************** function _readchannel *****************
  1535 ;; Defined at:
  1536 ;;		line 215 in file "newmain.c"
  1537 ;; Parameters:    Size  Location     Type
  1538 ;;  chan            2    0[COMMON] int 
  1539 ;; Auto vars:     Size  Location     Type
  1540 ;;		None
  1541 ;; Return value:  Size  Location     Type
  1542 ;;                  2    0[COMMON] int 
  1543 ;; Registers used:
  1544 ;;		wreg, status,2, status,0
  1545 ;; Tracked objects:
  1546 ;;		On entry : 0/0
  1547 ;;		On exit  : 0/0
  1548 ;;		Unchanged: 0/0
  1549 ;; Data sizes:     COMMON   BANK0   BANK1   BANK2   BANK3   BANK4   BANK5   BANK6
  1550 ;;      Params:         2       0       0       0       0       0       0       0
  1551 ;;      Locals:         0       0       0       0       0       0       0       0
  1552 ;;      Temps:          2       0       0       0       0       0       0       0
  1553 ;;      Totals:         4       0       0       0       0       0       0       0
  1554 ;;Total ram usage:        4 bytes
  1555 ;; Hardware stack levels used:    1
  1556 ;; This function calls:
  1557 ;;		Nothing
  1558 ;; This function is called by:
  1559 ;;		_main
  1560 ;; This function uses a non-reentrant model
  1561 ;;
  1562                           psect	text190
  1563                           	file	"newmain.c"
  1564                           	line	215
  1565                           	global	__size_of_readchannel
  1566  0036                     	__size_of_readchannel	equ	__end_of_readchannel-_readchannel
  1567                           	
  1568  05DF                     _readchannel:	
  1569                           	opt	stack 15
  1570                           ; Regs used in _readchannel: [wreg+status,2+status,0]
  1571                           	line	216
  1572                           	
  1573  05DF                     l2387:	
  1574                           ;newmain.c: 216: if (chan == 0)
  1575  05DF  0871               	movf	((readchannel@chan+1)),w
  1576  05E0  0470               	iorwf	((readchannel@chan)),w
  1577  05E1  1D03               	skipz
  1578  05E2  2DE4               	goto	u2371
  1579  05E3  2DE5               	goto	u2370
  1580  05E4                     u2371:
  1581  05E4  2DF9               	goto	l2399
  1582  05E5                     u2370:
  1583                           	line	218
  1584                           	
  1585  05E5                     l2389:	
  1586                           ;newmain.c: 217: {
  1587                           ;newmain.c: 218: ADCON0 = 0b01000001;
  1588  05E5  3041               	movlw	(041h)
  1589  05E6  0021               	movlb 1	; select bank1
  1590  05E7  009D               	movwf	(157)^080h	;volatile
  1591                           	line	220
  1592                           	
  1593  05E8                     l2391:	
  1594                           ;newmain.c: 220: GO_nDONE=1;
  1595  05E8  149D               	bsf	(1257/8)^080h,(1257)&7
  1596                           	line	221
  1597                           ;newmain.c: 221: while(GO_nDONE);
  1598  05E9  2DEA               	goto	l1036
  1599                           	
  1600  05EA                     l1037:	
  1601                           	
  1602  05EA                     l1036:	
  1603  05EA  189D               	btfsc	(1257/8)^080h,(1257)&7
  1604  05EB  2DED               	goto	u2381
  1605  05EC  2DEE               	goto	u2380
  1606  05ED                     u2381:
  1607  05ED  2DEA               	goto	l1036
  1608  05EE                     u2380:
  1609                           	
  1610  05EE                     l1038:	
  1611                           	line	223
  1612                           ;newmain.c: 223: ADON=0;
  1613  05EE  101D               	bcf	(1256/8)^080h,(1256)&7
  1614                           	line	225
  1615                           	
  1616  05EF                     l2393:	
  1617                           ;newmain.c: 225: return ADRESH;
  1618  05EF  081C               	movf	(156)^080h,w	;volatile
  1619  05F0  00F2               	movwf	(??_readchannel+0)+0
  1620  05F1  01F3               	clrf	(??_readchannel+0)+0+1
  1621  05F2  0872               	movf	0+(??_readchannel+0)+0,w
  1622  05F3  00F0               	movwf	(?_readchannel)
  1623  05F4  0873               	movf	1+(??_readchannel+0)+0,w
  1624  05F5  00F1               	movwf	(?_readchannel+1)
  1625  05F6  2E14               	goto	l1039
  1626                           	
  1627  05F7                     l2395:	
  1628  05F7  2E14               	goto	l1039
  1629                           	line	226
  1630                           	
  1631  05F8                     l2397:	
  1632                           ;newmain.c: 226: }
  1633  05F8  2E14               	goto	l1039
  1634                           	line	227
  1635                           	
  1636  05F9                     l1035:	
  1637                           	
  1638  05F9                     l2399:	
  1639                           ;newmain.c: 227: else if (chan == 1)
  1640  05F9  3001               	movlw	01h
  1641  05FA  0670               	xorwf	(readchannel@chan),w
  1642  05FB  0471               	iorwf	(readchannel@chan+1),w
  1643  05FC  1D03               	skipz
  1644  05FD  2DFF               	goto	u2391
  1645  05FE  2E00               	goto	u2390
  1646  05FF                     u2391:
  1647  05FF  2E14               	goto	l1039
  1648  0600                     u2390:
  1649                           	line	229
  1650                           	
  1651  0600                     l2401:	
  1652                           ;newmain.c: 228: {
  1653                           ;newmain.c: 229: ADCON0 = 0b01000101;
  1654  0600  3045               	movlw	(045h)
  1655  0601  0021               	movlb 1	; select bank1
  1656  0602  009D               	movwf	(157)^080h	;volatile
  1657                           	line	231
  1658                           	
  1659  0603                     l2403:	
  1660                           ;newmain.c: 231: GO_nDONE=1;
  1661  0603  149D               	bsf	(1257/8)^080h,(1257)&7
  1662                           	line	232
  1663                           ;newmain.c: 232: while(GO_nDONE);
  1664  0604  2E05               	goto	l1042
  1665                           	
  1666  0605                     l1043:	
  1667                           	
  1668  0605                     l1042:	
  1669  0605  189D               	btfsc	(1257/8)^080h,(1257)&7
  1670  0606  2E08               	goto	u2401
  1671  0607  2E09               	goto	u2400
  1672  0608                     u2401:
  1673  0608  2E05               	goto	l1042
  1674  0609                     u2400:
  1675                           	
  1676  0609                     l1044:	
  1677                           	line	234
  1678                           ;newmain.c: 234: ADON=0;
  1679  0609  101D               	bcf	(1256/8)^080h,(1256)&7
  1680                           	line	236
  1681                           	
  1682  060A                     l2405:	
  1683                           ;newmain.c: 236: return ADRESH;
  1684  060A  081C               	movf	(156)^080h,w	;volatile
  1685  060B  00F2               	movwf	(??_readchannel+0)+0
  1686  060C  01F3               	clrf	(??_readchannel+0)+0+1
  1687  060D  0872               	movf	0+(??_readchannel+0)+0,w
  1688  060E  00F0               	movwf	(?_readchannel)
  1689  060F  0873               	movf	1+(??_readchannel+0)+0,w
  1690  0610  00F1               	movwf	(?_readchannel+1)
  1691  0611  2E14               	goto	l1039
  1692                           	
  1693  0612                     l2407:	
  1694  0612  2E14               	goto	l1039
  1695                           	line	237
  1696                           	
  1697  0613                     l1041:	
  1698  0613  2E14               	goto	l1039
  1699                           	line	238
  1700                           	
  1701  0614                     l1040:	
  1702                           	
  1703  0614                     l1039:	
  1704  0614  0008               	return
  1705                           	opt stack 0
  1706                           GLOBAL	__end_of_readchannel
  1707  0615                     	__end_of_readchannel:
  1708 ;; =============== function _readchannel ends ============
  1709                           
  1710                           	signat	_readchannel,4218
  1711                           	global	_ADCInit
  1712                           psect	text191,local,class=CODE,delta=2
  1713                           global __ptext191
  1714  056A                     __ptext191:
  1715                           
  1716 ;; *************** function _ADCInit *****************
  1717 ;; Defined at:
  1718 ;;		line 206 in file "newmain.c"
  1719 ;; Parameters:    Size  Location     Type
  1720 ;;		None
  1721 ;; Auto vars:     Size  Location     Type
  1722 ;;		None
  1723 ;; Return value:  Size  Location     Type
  1724 ;;		None               void
  1725 ;; Registers used:
  1726 ;;		wreg, status,2
  1727 ;; Tracked objects:
  1728 ;;		On entry : 0/0
  1729 ;;		On exit  : 0/0
  1730 ;;		Unchanged: 0/0
  1731 ;; Data sizes:     COMMON   BANK0   BANK1   BANK2   BANK3   BANK4   BANK5   BANK6
  1732 ;;      Params:         0       0       0       0       0       0       0       0
  1733 ;;      Locals:         0       0       0       0       0       0       0       0
  1734 ;;      Temps:          0       0       0       0       0       0       0       0
  1735 ;;      Totals:         0       0       0       0       0       0       0       0
  1736 ;;Total ram usage:        0 bytes
  1737 ;; Hardware stack levels used:    1
  1738 ;; This function calls:
  1739 ;;		Nothing
  1740 ;; This function is called by:
  1741 ;;		_main
  1742 ;; This function uses a non-reentrant model
  1743 ;;
  1744                           psect	text191
  1745                           	file	"newmain.c"
  1746                           	line	206
  1747                           	global	__size_of_ADCInit
  1748  0006                     	__size_of_ADCInit	equ	__end_of_ADCInit-_ADCInit
  1749                           	
  1750  056A                     _ADCInit:	
  1751                           	opt	stack 15
  1752                           ; Regs used in _ADCInit: [wreg+status,2]
  1753                           	line	207
  1754                           	
  1755  056A                     l2383:	
  1756                           ;newmain.c: 207: ANSELC = 0b00110000;
  1757  056A  3030               	movlw	(030h)
  1758  056B  0023               	movlb 3	; select bank3
  1759  056C  008E               	movwf	(398)^0180h	;volatile
  1760                           	line	208
  1761                           	
  1762  056D                     l2385:	
  1763                           ;newmain.c: 208: ADCON1 = 0x00;
  1764  056D  0021               	movlb 1	; select bank1
  1765  056E  019E               	clrf	(158)^080h	;volatile
  1766                           	line	212
  1767                           	
  1768  056F                     l1032:	
  1769  056F  0008               	return
  1770                           	opt stack 0
  1771                           GLOBAL	__end_of_ADCInit
  1772  0570                     	__end_of_ADCInit:
  1773 ;; =============== function _ADCInit ends ============
  1774                           
  1775                           	signat	_ADCInit,88
  1776                           	global	_controlMotor
  1777                           psect	text192,local,class=CODE,delta=2
  1778                           global __ptext192
  1779  0581                     __ptext192:
  1780                           
  1781 ;; *************** function _controlMotor *****************
  1782 ;; Defined at:
  1783 ;;		line 70 in file "newmain.c"
  1784 ;; Parameters:    Size  Location     Type
  1785 ;;  Leftpt          2    0[COMMON] int 
  1786 ;;  Rightpt         2    2[COMMON] int 
  1787 ;; Auto vars:     Size  Location     Type
  1788 ;;		None
  1789 ;; Return value:  Size  Location     Type
  1790 ;;		None               void
  1791 ;; Registers used:
  1792 ;;		wreg, status,2, status,0
  1793 ;; Tracked objects:
  1794 ;;		On entry : 0/0
  1795 ;;		On exit  : 0/0
  1796 ;;		Unchanged: 0/0
  1797 ;; Data sizes:     COMMON   BANK0   BANK1   BANK2   BANK3   BANK4   BANK5   BANK6
  1798 ;;      Params:         4       0       0       0       0       0       0       0
  1799 ;;      Locals:         0       0       0       0       0       0       0       0
  1800 ;;      Temps:          0       0       0       0       0       0       0       0
  1801 ;;      Totals:         4       0       0       0       0       0       0       0
  1802 ;;Total ram usage:        4 bytes
  1803 ;; Hardware stack levels used:    1
  1804 ;; This function calls:
  1805 ;;		Nothing
  1806 ;; This function is called by:
  1807 ;;		_searchTrack
  1808 ;;		_main
  1809 ;; This function uses a non-reentrant model
  1810 ;;
  1811                           psect	text192
  1812                           	file	"newmain.c"
  1813                           	line	70
  1814                           	global	__size_of_controlMotor
  1815  002E                     	__size_of_controlMotor	equ	__end_of_controlMotor-_controlMotor
  1816                           	
  1817  0581                     _controlMotor:	
  1818                           	opt	stack 15
  1819                           ; Regs used in _controlMotor: [wreg+status,2+status,0]
  1820                           	line	71
  1821                           	
  1822  0581                     l2369:	
  1823                           ;newmain.c: 71: if (Leftpt == 1)
  1824  0581  3001               	movlw	01h
  1825  0582  0670               	xorwf	(controlMotor@Leftpt),w
  1826  0583  0471               	iorwf	(controlMotor@Leftpt+1),w
  1827  0584  1D03               	skipz
  1828  0585  2D87               	goto	u2331
  1829  0586  2D88               	goto	u2330
  1830  0587                     u2331:
  1831  0587  2D8B               	goto	l1004
  1832  0588                     u2330:
  1833                           	line	75
  1834                           	
  1835  0588                     l2371:	
  1836                           ;newmain.c: 72: {
  1837                           ;newmain.c: 75: RC6 = 1;
  1838  0588  0020               	movlb 0	; select bank0
  1839  0589  170E               	bsf	(118/8),(118)&7
  1840                           	line	76
  1841                           ;newmain.c: 76: }
  1842  058A  2D98               	goto	l1005
  1843                           	line	77
  1844                           	
  1845  058B                     l1004:	
  1846                           	line	81
  1847                           ;newmain.c: 77: else
  1848                           ;newmain.c: 78: {
  1849                           ;newmain.c: 81: RC6 = 0;
  1850  058B  0020               	movlb 0	; select bank0
  1851  058C  130E               	bcf	(118/8),(118)&7
  1852                           	line	82
  1853                           	
  1854  058D                     l2373:	
  1855                           ;newmain.c: 82: if (ignore == 0)
  1856  058D  082F               	movf	((_ignore+1)),w
  1857  058E  042E               	iorwf	((_ignore)),w
  1858  058F  1D03               	skipz
  1859  0590  2D92               	goto	u2341
  1860  0591  2D93               	goto	u2340
  1861  0592                     u2341:
  1862  0592  2D98               	goto	l1005
  1863  0593                     u2340:
  1864                           	line	84
  1865                           	
  1866  0593                     l2375:	
  1867                           ;newmain.c: 83: {
  1868                           ;newmain.c: 84: lastMotor = 1;
  1869  0593  3001               	movlw	low(01h)
  1870  0594  00B0               	movwf	(_lastMotor)
  1871  0595  3000               	movlw	high(01h)
  1872  0596  00B1               	movwf	((_lastMotor))+1
  1873  0597  2D98               	goto	l1005
  1874                           	line	85
  1875                           	
  1876  0598                     l1006:	
  1877                           	line	86
  1878                           	
  1879  0598                     l1005:	
  1880                           	line	89
  1881                           ;newmain.c: 85: }
  1882                           ;newmain.c: 86: }
  1883                           ;newmain.c: 89: if (Rightpt == 1)
  1884  0598  3001               	movlw	01h
  1885  0599  0672               	xorwf	(controlMotor@Rightpt),w
  1886  059A  0473               	iorwf	(controlMotor@Rightpt+1),w
  1887  059B  1D03               	skipz
  1888  059C  2D9E               	goto	u2351
  1889  059D  2D9F               	goto	u2350
  1890  059E                     u2351:
  1891  059E  2DA1               	goto	l1007
  1892  059F                     u2350:
  1893                           	line	93
  1894                           	
  1895  059F                     l2377:	
  1896                           ;newmain.c: 90: {
  1897                           ;newmain.c: 93: RC7 = 1;
  1898  059F  178E               	bsf	(119/8),(119)&7
  1899                           	line	94
  1900                           ;newmain.c: 94: }
  1901  05A0  2DAE               	goto	l1010
  1902                           	line	95
  1903                           	
  1904  05A1                     l1007:	
  1905                           	line	98
  1906                           ;newmain.c: 95: else
  1907                           ;newmain.c: 96: {
  1908                           ;newmain.c: 98: RC7 = 0;
  1909  05A1  138E               	bcf	(119/8),(119)&7
  1910                           	line	99
  1911                           	
  1912  05A2                     l2379:	
  1913                           ;newmain.c: 99: if (ignore == 0)
  1914  05A2  082F               	movf	((_ignore+1)),w
  1915  05A3  042E               	iorwf	((_ignore)),w
  1916  05A4  1D03               	skipz
  1917  05A5  2DA7               	goto	u2361
  1918  05A6  2DA8               	goto	u2360
  1919  05A7                     u2361:
  1920  05A7  2DAE               	goto	l1010
  1921  05A8                     u2360:
  1922                           	line	101
  1923                           	
  1924  05A8                     l2381:	
  1925                           ;newmain.c: 100: {
  1926                           ;newmain.c: 101: lastMotor = 2;
  1927  05A8  3002               	movlw	low(02h)
  1928  05A9  00B0               	movwf	(_lastMotor)
  1929  05AA  3000               	movlw	high(02h)
  1930  05AB  00B1               	movwf	((_lastMotor))+1
  1931  05AC  2DAE               	goto	l1010
  1932                           	line	102
  1933                           	
  1934  05AD                     l1009:	
  1935  05AD  2DAE               	goto	l1010
  1936                           	line	103
  1937                           	
  1938  05AE                     l1008:	
  1939                           	line	104
  1940                           	
  1941  05AE                     l1010:	
  1942  05AE  0008               	return
  1943                           	opt stack 0
  1944                           GLOBAL	__end_of_controlMotor
  1945  05AF                     	__end_of_controlMotor:
  1946 ;; =============== function _controlMotor ends ============
  1947                           
  1948                           	signat	_controlMotor,8312
  1949                           psect	text193,local,class=CODE,delta=2
  1950                           global __ptext193
  1951  0000                     __ptext193:
  1952                           	global	btemp
  1953  007E                     	btemp set 07Eh
  1954                           
  1955                           	DABS	1,126,2	;btemp
  1956                           	global	wtemp0
  1957  007E                     	wtemp0 set btemp


HI-TECH Software PICC Macro Assembler V9.82 build 9453 
Symbol Table                                                                                   Fri May 18 20:50:57 2012

                  l997 05AF                    l998 05C0                    l999 05D3                    _RC2 0072  
                  _RC3 0073                    _RC6 0076                    _RC7 0077        __end_of_ADCInit 0570  
                  wreg 0009                   l1000 05DE                   l1001 05DE                   l1010 05AE  
                 l1004 058B                   l1005 0598                   l1013 062D                   l1021 0720  
                 l1006 0598                   l1014 0656                   l1022 0744                   l1007 05A1  
                 l1015 0641                   l1023 075C                   l1008 05AE                   l1032 056F  
                 l1040 0614                   l1016 0655                   l1024 0780                   l1009 05AD  
                 l1041 0613                   l1017 0654                   l1025 0798                   l1042 0605  
                 l1018 0656                   l1026 07BC                   l1050 06CD                   l1043 0605  
                 l1035 05F9                   l1027 07DB                   l1051 06CE                   l1044 0609  
                 l1036 05EA                   l1028 07FF                   l1052 06CE                   l1037 05EA  
                 l1029 07FF                   l1038 05EE                   l1039 0614                   l1047 0667  
                 l1048 06B9                   l1049 06CC                   l2401 0600                   l2403 0603  
                 l2411 05B1                   l2405 060A                   l2413 05BF                   l2421 0615  
                 l2501 07DA                   l2407 0612                   l2415 05C1                   l2431 0648  
                 l2423 0621                   l2503 07DD                   l2511 0657                   l2417 05C5  
                 l2409 05AF                   l2425 062D                   l2505 07E4                   l2441 06EB  
                 l2433 06D0                   l2521 0660                   l2513 065A                   l2371 0588  
                 l2419 05D3                   l2427 0635                   l2507 07ED                   l2451 0711  
                 l2443 06F4                   l2435 06D2                   l2531 06A9                   l2523 0663  
                 l2515 065C                   l2381 05A8                   l2373 058D                   l2429 0641  
                 l2509 07F1                   l2461 0736                   l2453 071F                   l2445 06FD  
                 l2437 06D9                   l2533 06AF                   l2525 0667                   l2517 065E  
                 l2375 0593                   l2383 056A                   l2391 05E8                   l2471 075E  
                 l2455 0722                   l2463 0744                   l2447 0706                   l2439 06E2  
                 l2535 06B5                   l2527 0675                   l2519 065F                   l2377 059F  
                 l2369 0581                   l2385 056D                   l2393 05EF                   l2481 0787  
                 l2473 0765                   l2465 074B                   l2457 0729                   l2449 070F  
                 l2537 06B9                   l2529 0696                   l2379 05A2                   l2395 05F7  
                 l2387 05DF                   l2491 07AA                   l2483 0789                   l2475 076E  
                 l2467 074D                   l2459 0732                   l2539 06BC                   l2397 05F8  
                 l2389 05E5                   l2493 07AE                   l2485 0797                   l2477 0772  
                 l2469 075B                   l2399 05F9                   l2487 079A                   l2495 07BC  
                 l2479 0780                   l2497 07CA                   l2489 07A1                   l2499 07CC  
                 _ADON 04E8                   u2400 0609                   u2401 0608                   u2330 0588  
                 u2410 05BE                   u2331 0587                   u2411 05BD                   u2340 0593  
                 u2420 05D2                   u2500 077F                   u2341 0592                   u2421 05D1  
                 u2501 077E                   u2350 059F                   u2430 05DD                   u2510 0796  
                 u2351 059E                   u2431 05DC                   u2415 05BA                   u2511 0795  
                 u2360 05A8                   u2440 0621                   u2520 07BB                   u2361 05A7  
                 u2425 05CE                   u2441 0620                   u2521 07BA                   u2505 077B  
                 u2370 05E5                   u2450 0635                   u2530 07D9                   u2371 05E4  
                 u2451 0634                   u2531 07D8                   u2515 0792                   u2380 05EE  
                 u2460 0648                   u2540 07FE                   u2381 05ED                   u2461 0647  
                 u2541 07FD                   u2525 07B7                   u2390 0600                   u2470 071E  
                 u2391 05FF                   u2535 07D5                   u2471 071D                   u2480 0743  
                 u2545 07FA                   u2481 0742                   u2490 075A                   u2570 06AF  
                 u2491 0759                   u2475 071A                   u2571 06AE                   u2555 067E  
                 u2580 06B5                   u2485 073F                   u2581 06B4                   u2565 069F  
                 u2495 0756                   _main 0657            main@rightpt 0036                   fsr0h 0005  
                 fsr0l 0004                   indf0 0000                   btemp 007E                   _stop 0028  
                 start 0002          ?_controlMotor 0070                  ?_main 0070     controlMotor@Leftpt 0070  
      __end_of_doDelay 0800           __delay_ms@ms 0070                  _PORTA 000C                  _PORTB 000D  
                _PORTC 000E                  _TRISA 008C                  _TRISB 008D                  _TRISC 008E  
         ?_readchannel 0070                  _count 0020                  _ticks 0032                  _start 0024  
                wtemp0 007E           __end_of_main 06D0         ??_controlMotor 0074           ?_searchTrack 0070  
            ??_ADCInit 0070                 ??_main 007C                 _ADCON0 009D                 _ADCON1 009E  
               _ADRESH 009C                 _ANSELC 018E    controlMotor@Rightpt 0072              ??_doDelay 0074  
               _ignore 002E                 clrloop 0571     __size_of__delay_ms 0030         __pcstackCOMMON 0070  
           __pbssBANK0 0020   __size_of_readchannel 0036   __end_of_controlMotor 05AF             __pmaintext 0657  
              _ADCInit 056A   __size_of_searchTrack 0042      __end_of__delay_ms 05DF                _doDelay 06D0  
              _clock_t 002C   end_of_initialization 057E  __size_of_controlMotor 002E             main@leftpt 0034  
          __delay_ms@i 0072           _controlMotor 0581    start_initialization 0576               ?_ADCInit 0070  
        __pcstackBANK0 0034          ??_readchannel 0072              __delay_ms 05AF              __ptext190 05DF  
            __ptext191 056A              __ptext192 0581              __ptext193 0000              __ptext186 0000  
            __ptext187 06D0              __ptext188 0615              __ptext189 05AF          ??_searchTrack 0074  
             ?_doDelay 0070              _lastMotor 0030             ?__delay_ms 0070    __end_of_readchannel 0615  
             _GO_nDONE 04E9       __size_of_ADCInit 0006    __end_of_searchTrack 0657          doDelay@i_1630 007A  
        doDelay@i_1628 0076          doDelay@i_1629 0078       __size_of_doDelay 0130            ??__delay_ms 0072  
          _readchannel 05DF               doDelay@i 0074        readchannel@chan 0070          __size_of_main 0079  
             clear_ram 0570            _searchTrack 0615               main@read 0038  
